
6.out:     file format elf64-x86-64


Disassembly of section .text:

0000000001000c00 <main.main>:
package main

func main() {
 1000c00:	64 48 8b 0c 25 f0 ff 	mov    %fs:0xfffffffffffffff0,%rcx
 1000c07:	ff ff 
 1000c09:	48 3b 21             	cmp    (%rcx),%rsp
 1000c0c:	77 05                	ja     1000c13 <main.main+0x13>
 1000c0e:	e8 e0 0c 00 00       	callq  10018f3 <runtime.morestack00>
 1000c13:	48 83 ec 10          	sub    $0x10,%rsp
	print("Hello, world!\n")
 1000c17:	48 8d 34 25 10 57 01 	lea    0x1015710,%rsi
 1000c1e:	01 
 1000c1f:	48 8d 3c 24          	lea    (%rsp),%rdi
 1000c23:	48 a5                	movsq  %ds:(%rsi),%es:(%rdi)
 1000c25:	48 a5                	movsq  %ds:(%rsi),%es:(%rdi)
 1000c27:	e8 9c 70 00 00       	callq  1007cc8 <runtime.printstring>
 1000c2c:	48 83 c4 10          	add    $0x10,%rsp
 1000c30:	c3                   	retq   

0000000001000c31 <main.init>:
 1000c31:	64 48 8b 0c 25 f0 ff 	mov    %fs:0xfffffffffffffff0,%rcx
 1000c38:	ff ff 
 1000c3a:	48 3b 21             	cmp    (%rcx),%rsp
 1000c3d:	77 05                	ja     1000c44 <main.init+0x13>
 1000c3f:	e8 af 0c 00 00       	callq  10018f3 <runtime.morestack00>
 1000c44:	8a 04 25 e1 4d 02 01 	mov    0x1024de1,%al
 1000c4b:	88 c3                	mov    %al,%bl
 1000c4d:	80 fb 00             	cmp    $0x0,%bl
 1000c50:	74 0d                	je     1000c5f <main.init+0x2e>
 1000c52:	88 c3                	mov    %al,%bl
 1000c54:	80 fb 02             	cmp    $0x2,%bl
 1000c57:	75 01                	jne    1000c5a <main.init+0x29>
 1000c59:	c3                   	retq   
 1000c5a:	e8 b0 90 00 00       	callq  1009d0f <runtime.throwinit>
 1000c5f:	c6 04 25 e1 4d 02 01 	movb   $0x2,0x1024de1
 1000c66:	02 
 1000c67:	c3                   	retq   

0000000001000c68 <runtime.(*TypeAssertionError).RuntimeError>:
	concreteString  string
	assertedString  string
	missingMethod   string // one method needed by Interface, missing from Concrete
}

func (*TypeAssertionError) RuntimeError() {}
 1000c68:	64 48 8b 0c 25 f0 ff 	mov    %fs:0xfffffffffffffff0,%rcx
 1000c6f:	ff ff 
 1000c71:	48 3b 21             	cmp    (%rcx),%rsp
 1000c74:	77 05                	ja     1000c7b <runtime.(*TypeAssertionError).RuntimeError+0x13>
 1000c76:	e8 d1 0c 00 00       	callq  100194c <runtime.morestack8>
 1000c7b:	c3                   	retq   

0000000001000c7c <runtime.(*TypeAssertionError).String>:

func (e *TypeAssertionError) String() string {
 1000c7c:	64 48 8b 0c 25 f0 ff 	mov    %fs:0xfffffffffffffff0,%rcx
 1000c83:	ff ff 
 1000c85:	48 3b 21             	cmp    (%rcx),%rsp
 1000c88:	77 05                	ja     1000c8f <runtime.(*TypeAssertionError).String+0x13>
 1000c8a:	e8 cf 0c 00 00       	callq  100195e <runtime.morestack24>
 1000c8f:	48 83 ec 78          	sub    $0x78,%rsp
 1000c93:	48 8b 84 24 80 00 00 	mov    0x80(%rsp),%rax
 1000c9a:	00 
	inter := e.interfaceString
 1000c9b:	48 89 c3             	mov    %rax,%rbx
 1000c9e:	48 83 c3 30          	add    $0x30,%rbx
 1000ca2:	48 8b 13             	mov    (%rbx),%rdx
 1000ca5:	8b 4b 08             	mov    0x8(%rbx),%ecx
	if inter == "" {
 1000ca8:	83 f9 00             	cmp    $0x0,%ecx
 1000cab:	75 0e                	jne    1000cbb <runtime.(*TypeAssertionError).String+0x3f>
		inter = "interface"
 1000cad:	48 8d 1c 25 60 4b 01 	lea    0x1014b60,%rbx
 1000cb4:	01 
 1000cb5:	48 8b 13             	mov    (%rbx),%rdx
 1000cb8:	8b 4b 08             	mov    0x8(%rbx),%ecx
	}
	if e.concreteType == nil {
 1000cbb:	48 89 c3             	mov    %rax,%rbx
 1000cbe:	48 83 c3 10          	add    $0x10,%rbx
 1000cc2:	48 83 3b 00          	cmpq   $0x0,(%rbx)
 1000cc6:	75 66                	jne    1000d2e <runtime.(*TypeAssertionError).String+0xb2>
		return "interface conversion: " + inter + " is nil, not " + e.assertedString
 1000cc8:	c7 04 24 04 00 00 00 	movl   $0x4,(%rsp)
 1000ccf:	48 8d 34 25 78 62 01 	lea    0x1016278,%rsi
 1000cd6:	01 
 1000cd7:	48 8d 7c 24 08       	lea    0x8(%rsp),%rdi
 1000cdc:	48 a5                	movsq  %ds:(%rsi),%es:(%rdi)
 1000cde:	48 a5                	movsq  %ds:(%rsi),%es:(%rdi)
 1000ce0:	48 8d 5c 24 18       	lea    0x18(%rsp),%rbx
 1000ce5:	48 89 13             	mov    %rdx,(%rbx)
 1000ce8:	89 4b 08             	mov    %ecx,0x8(%rbx)
 1000ceb:	48 8d 34 25 d0 52 01 	lea    0x10152d0,%rsi
 1000cf2:	01 
 1000cf3:	48 8d 7c 24 28       	lea    0x28(%rsp),%rdi
 1000cf8:	48 a5                	movsq  %ds:(%rsi),%es:(%rdi)
 1000cfa:	48 a5                	movsq  %ds:(%rsi),%es:(%rdi)
 1000cfc:	48 89 c6             	mov    %rax,%rsi
 1000cff:	48 83 c6 50          	add    $0x50,%rsi
 1000d03:	48 8d 7c 24 38       	lea    0x38(%rsp),%rdi
 1000d08:	48 a5                	movsq  %ds:(%rsi),%es:(%rdi)
 1000d0a:	48 a5                	movsq  %ds:(%rsi),%es:(%rdi)
 1000d0c:	e8 5e ad 00 00       	callq  100ba6f <runtime.concatstring>
 1000d11:	48 8b 5c 24 48       	mov    0x48(%rsp),%rbx
 1000d16:	48 89 9c 24 88 00 00 	mov    %rbx,0x88(%rsp)
 1000d1d:	00 
 1000d1e:	8b 5c 24 50          	mov    0x50(%rsp),%ebx
 1000d22:	89 9c 24 90 00 00 00 	mov    %ebx,0x90(%rsp)
 1000d29:	48 83 c4 78          	add    $0x78,%rsp
 1000d2d:	c3                   	retq   
	}
	if e.missingMethod == "" {
 1000d2e:	48 89 c3             	mov    %rax,%rbx
 1000d31:	48 83 c3 60          	add    $0x60,%rbx
 1000d35:	8b 5b 08             	mov    0x8(%rbx),%ebx
 1000d38:	83 fb 00             	cmp    $0x0,%ebx
 1000d3b:	0f 85 87 00 00 00    	jne    1000dc8 <runtime.(*TypeAssertionError).String+0x14c>
		return "interface conversion: " + inter + " is " + e.concreteString +
			", not " + e.assertedString
 1000d41:	c7 04 24 06 00 00 00 	movl   $0x6,(%rsp)
 1000d48:	48 8d 34 25 78 62 01 	lea    0x1016278,%rsi
 1000d4f:	01 
 1000d50:	48 8d 7c 24 08       	lea    0x8(%rsp),%rdi
 1000d55:	48 a5                	movsq  %ds:(%rsi),%es:(%rdi)
 1000d57:	48 a5                	movsq  %ds:(%rsi),%es:(%rdi)
 1000d59:	48 8d 5c 24 18       	lea    0x18(%rsp),%rbx
 1000d5e:	48 89 13             	mov    %rdx,(%rbx)
 1000d61:	89 4b 08             	mov    %ecx,0x8(%rbx)
 1000d64:	48 8d 34 25 80 40 01 	lea    0x1014080,%rsi
 1000d6b:	01 
 1000d6c:	48 8d 7c 24 28       	lea    0x28(%rsp),%rdi
 1000d71:	48 a5                	movsq  %ds:(%rsi),%es:(%rdi)
 1000d73:	48 a5                	movsq  %ds:(%rsi),%es:(%rdi)
 1000d75:	48 89 c6             	mov    %rax,%rsi
 1000d78:	48 83 c6 40          	add    $0x40,%rsi
 1000d7c:	48 8d 7c 24 38       	lea    0x38(%rsp),%rdi
 1000d81:	48 a5                	movsq  %ds:(%rsi),%es:(%rdi)
 1000d83:	48 a5                	movsq  %ds:(%rsi),%es:(%rdi)
 1000d85:	48 8d 34 25 00 42 01 	lea    0x1014200,%rsi
 1000d8c:	01 
 1000d8d:	48 8d 7c 24 48       	lea    0x48(%rsp),%rdi
 1000d92:	48 a5                	movsq  %ds:(%rsi),%es:(%rdi)
 1000d94:	48 a5                	movsq  %ds:(%rsi),%es:(%rdi)
 1000d96:	48 89 c6             	mov    %rax,%rsi
 1000d99:	48 83 c6 50          	add    $0x50,%rsi
 1000d9d:	48 8d 7c 24 58       	lea    0x58(%rsp),%rdi
 1000da2:	48 a5                	movsq  %ds:(%rsi),%es:(%rdi)
 1000da4:	48 a5                	movsq  %ds:(%rsi),%es:(%rdi)
 1000da6:	e8 c4 ac 00 00       	callq  100ba6f <runtime.concatstring>
 1000dab:	48 8b 5c 24 68       	mov    0x68(%rsp),%rbx
 1000db0:	48 89 9c 24 88 00 00 	mov    %rbx,0x88(%rsp)
 1000db7:	00 
 1000db8:	8b 5c 24 70          	mov    0x70(%rsp),%ebx
 1000dbc:	89 9c 24 90 00 00 00 	mov    %ebx,0x90(%rsp)
 1000dc3:	48 83 c4 78          	add    $0x78,%rsp
 1000dc7:	c3                   	retq   
	}
	return "interface conversion: " + e.concreteString + " is not " + e.assertedString +
		": missing method " + e.missingMethod
 1000dc8:	c7 04 24 06 00 00 00 	movl   $0x6,(%rsp)
 1000dcf:	48 8d 34 25 78 62 01 	lea    0x1016278,%rsi
 1000dd6:	01 
 1000dd7:	48 8d 7c 24 08       	lea    0x8(%rsp),%rdi
 1000ddc:	48 a5                	movsq  %ds:(%rsi),%es:(%rdi)
 1000dde:	48 a5                	movsq  %ds:(%rsi),%es:(%rdi)
 1000de0:	48 89 c6             	mov    %rax,%rsi
 1000de3:	48 83 c6 40          	add    $0x40,%rsi
 1000de7:	48 8d 7c 24 18       	lea    0x18(%rsp),%rdi
 1000dec:	48 a5                	movsq  %ds:(%rsi),%es:(%rdi)
 1000dee:	48 a5                	movsq  %ds:(%rsi),%es:(%rdi)
 1000df0:	48 8d 34 25 98 40 01 	lea    0x1014098,%rsi
 1000df7:	01 
 1000df8:	48 8d 7c 24 28       	lea    0x28(%rsp),%rdi
 1000dfd:	48 a5                	movsq  %ds:(%rsi),%es:(%rdi)
 1000dff:	48 a5                	movsq  %ds:(%rsi),%es:(%rdi)
 1000e01:	48 89 c6             	mov    %rax,%rsi
 1000e04:	48 83 c6 50          	add    $0x50,%rsi
 1000e08:	48 8d 7c 24 38       	lea    0x38(%rsp),%rdi
 1000e0d:	48 a5                	movsq  %ds:(%rsi),%es:(%rdi)
 1000e0f:	48 a5                	movsq  %ds:(%rsi),%es:(%rdi)
 1000e11:	48 8d 34 25 f0 56 01 	lea    0x10156f0,%rsi
 1000e18:	01 
 1000e19:	48 8d 7c 24 48       	lea    0x48(%rsp),%rdi
 1000e1e:	48 a5                	movsq  %ds:(%rsi),%es:(%rdi)
 1000e20:	48 a5                	movsq  %ds:(%rsi),%es:(%rdi)
 1000e22:	48 89 c6             	mov    %rax,%rsi
 1000e25:	48 83 c6 60          	add    $0x60,%rsi
 1000e29:	48 8d 7c 24 58       	lea    0x58(%rsp),%rdi
 1000e2e:	48 a5                	movsq  %ds:(%rsi),%es:(%rdi)
 1000e30:	48 a5                	movsq  %ds:(%rsi),%es:(%rdi)
 1000e32:	e8 38 ac 00 00       	callq  100ba6f <runtime.concatstring>
 1000e37:	48 8b 5c 24 68       	mov    0x68(%rsp),%rbx
 1000e3c:	48 89 9c 24 88 00 00 	mov    %rbx,0x88(%rsp)
 1000e43:	00 
 1000e44:	8b 5c 24 70          	mov    0x70(%rsp),%ebx
 1000e48:	89 9c 24 90 00 00 00 	mov    %ebx,0x90(%rsp)
 1000e4f:	48 83 c4 78          	add    $0x78,%rsp
 1000e53:	c3                   	retq   

0000000001000e54 <runtime.(*TypeAssertionError).Concrete>:
}

// Concrete returns the type of the concrete value in the failed type assertion.
// If the interface value was nil, Concrete returns nil.
func (e *TypeAssertionError) Concrete() Type {
 1000e54:	64 48 8b 0c 25 f0 ff 	mov    %fs:0xfffffffffffffff0,%rcx
 1000e5b:	ff ff 
 1000e5d:	48 3b 21             	cmp    (%rcx),%rsp
 1000e60:	77 05                	ja     1000e67 <runtime.(*TypeAssertionError).Concrete+0x13>
 1000e62:	e8 f7 0a 00 00       	callq  100195e <runtime.morestack24>
	return e.concreteType
 1000e67:	48 8b 5c 24 08       	mov    0x8(%rsp),%rbx
 1000e6c:	48 83 c3 10          	add    $0x10,%rbx
 1000e70:	48 8b 2b             	mov    (%rbx),%rbp
 1000e73:	48 89 6c 24 10       	mov    %rbp,0x10(%rsp)
 1000e78:	48 8b 6b 08          	mov    0x8(%rbx),%rbp
 1000e7c:	48 89 6c 24 18       	mov    %rbp,0x18(%rsp)
 1000e81:	c3                   	retq   

0000000001000e82 <runtime.(*TypeAssertionError).Asserted>:
}

// Asserted returns the type incorrectly asserted by the type assertion.
func (e *TypeAssertionError) Asserted() Type {
 1000e82:	64 48 8b 0c 25 f0 ff 	mov    %fs:0xfffffffffffffff0,%rcx
 1000e89:	ff ff 
 1000e8b:	48 3b 21             	cmp    (%rcx),%rsp
 1000e8e:	77 05                	ja     1000e95 <runtime.(*TypeAssertionError).Asserted+0x13>
 1000e90:	e8 c9 0a 00 00       	callq  100195e <runtime.morestack24>
	return e.assertedType
 1000e95:	48 8b 5c 24 08       	mov    0x8(%rsp),%rbx
 1000e9a:	48 83 c3 20          	add    $0x20,%rbx
 1000e9e:	48 8b 2b             	mov    (%rbx),%rbp
 1000ea1:	48 89 6c 24 10       	mov    %rbp,0x10(%rsp)
 1000ea6:	48 8b 6b 08          	mov    0x8(%rbx),%rbp
 1000eaa:	48 89 6c 24 18       	mov    %rbp,0x18(%rsp)
 1000eaf:	c3                   	retq   

0000000001000eb0 <runtime.(*TypeAssertionError).MissingMethod>:
// If the type assertion is to an interface type, MissingMethod returns the
// name of a method needed to satisfy that interface type but not implemented
// by Concrete.  If there are multiple such methods,
// MissingMethod returns one; which one is unspecified.
// If the type assertion is not to an interface type, MissingMethod returns an empty string.
func (e *TypeAssertionError) MissingMethod() string {
 1000eb0:	64 48 8b 0c 25 f0 ff 	mov    %fs:0xfffffffffffffff0,%rcx
 1000eb7:	ff ff 
 1000eb9:	48 3b 21             	cmp    (%rcx),%rsp
 1000ebc:	77 05                	ja     1000ec3 <runtime.(*TypeAssertionError).MissingMethod+0x13>
 1000ebe:	e8 9b 0a 00 00       	callq  100195e <runtime.morestack24>
	return e.missingMethod
 1000ec3:	48 8b 5c 24 08       	mov    0x8(%rsp),%rbx
 1000ec8:	48 83 c3 60          	add    $0x60,%rbx
 1000ecc:	48 8b 2b             	mov    (%rbx),%rbp
 1000ecf:	48 89 6c 24 10       	mov    %rbp,0x10(%rsp)
 1000ed4:	8b 6b 08             	mov    0x8(%rbx),%ebp
 1000ed7:	89 6c 24 18          	mov    %ebp,0x18(%rsp)
 1000edb:	c3                   	retq   

0000000001000edc <runtime.newTypeAssertionError>:
}

// For calling from C.
func newTypeAssertionError(pt1, pt2, pt3 *Type, ps1, ps2, ps3 *string, pmeth *string, ret *interface{}) {
 1000edc:	64 48 8b 0c 25 f0 ff 	mov    %fs:0xfffffffffffffff0,%rcx
 1000ee3:	ff ff 
 1000ee5:	48 8d 44 24 f0       	lea    -0x10(%rsp),%rax
 1000eea:	48 3b 01             	cmp    (%rcx),%rax
 1000eed:	77 0a                	ja     1000ef9 <runtime.newTypeAssertionError+0x1d>
 1000eef:	b8 40 00 00 00       	mov    $0x40,%eax
 1000ef4:	e8 11 0a 00 00       	callq  100190a <runtime.morestack01>
 1000ef9:	48 81 ec 90 00 00 00 	sub    $0x90,%rsp
 1000f00:	4c 8b 8c 24 98 00 00 	mov    0x98(%rsp),%r9
 1000f07:	00 
 1000f08:	4c 8b 84 24 a0 00 00 	mov    0xa0(%rsp),%r8
 1000f0f:	00 
 1000f10:	48 8b bc 24 a8 00 00 	mov    0xa8(%rsp),%rdi
 1000f17:	00 
 1000f18:	48 8b b4 24 b0 00 00 	mov    0xb0(%rsp),%rsi
 1000f1f:	00 
 1000f20:	48 8b 94 24 b8 00 00 	mov    0xb8(%rsp),%rdx
 1000f27:	00 
 1000f28:	48 8b 8c 24 c0 00 00 	mov    0xc0(%rsp),%rcx
 1000f2f:	00 
 1000f30:	48 8b 84 24 c8 00 00 	mov    0xc8(%rsp),%rax
 1000f37:	00 
	var t1, t2, t3 Type
 1000f38:	48 c7 44 24 20 00 00 	movq   $0x0,0x20(%rsp)
 1000f3f:	00 00 
 1000f41:	48 c7 44 24 28 00 00 	movq   $0x0,0x28(%rsp)
 1000f48:	00 00 
 1000f4a:	48 c7 44 24 50 00 00 	movq   $0x0,0x50(%rsp)
 1000f51:	00 00 
 1000f53:	48 c7 44 24 58 00 00 	movq   $0x0,0x58(%rsp)
 1000f5a:	00 00 
 1000f5c:	48 c7 44 24 30 00 00 	movq   $0x0,0x30(%rsp)
 1000f63:	00 00 
 1000f65:	48 c7 44 24 38 00 00 	movq   $0x0,0x38(%rsp)
 1000f6c:	00 00 
	var s1, s2, s3, meth string
 1000f6e:	48 c7 44 24 70 00 00 	movq   $0x0,0x70(%rsp)
 1000f75:	00 00 
 1000f77:	c7 44 24 78 00 00 00 	movl   $0x0,0x78(%rsp)
 1000f7e:	00 
 1000f7f:	48 c7 44 24 40 00 00 	movq   $0x0,0x40(%rsp)
 1000f86:	00 00 
 1000f88:	c7 44 24 48 00 00 00 	movl   $0x0,0x48(%rsp)
 1000f8f:	00 
 1000f90:	48 c7 44 24 60 00 00 	movq   $0x0,0x60(%rsp)
 1000f97:	00 00 
 1000f99:	c7 44 24 68 00 00 00 	movl   $0x0,0x68(%rsp)
 1000fa0:	00 
 1000fa1:	48 c7 84 24 80 00 00 	movq   $0x0,0x80(%rsp)
 1000fa8:	00 00 00 00 00 
 1000fad:	c7 84 24 88 00 00 00 	movl   $0x0,0x88(%rsp)
 1000fb4:	00 00 00 00 

	if pt1 != nil {
 1000fb8:	48 31 ed             	xor    %rbp,%rbp
 1000fbb:	49 39 e9             	cmp    %rbp,%r9
 1000fbe:	74 11                	je     1000fd1 <runtime.newTypeAssertionError+0xf5>
		t1 = *pt1
 1000fc0:	49 8b 29             	mov    (%r9),%rbp
 1000fc3:	48 89 6c 24 20       	mov    %rbp,0x20(%rsp)
 1000fc8:	49 8b 69 08          	mov    0x8(%r9),%rbp
 1000fcc:	48 89 6c 24 28       	mov    %rbp,0x28(%rsp)
	}
	if pt2 != nil {
 1000fd1:	48 31 ed             	xor    %rbp,%rbp
 1000fd4:	49 39 e8             	cmp    %rbp,%r8
 1000fd7:	74 11                	je     1000fea <runtime.newTypeAssertionError+0x10e>
		t2 = *pt2
 1000fd9:	49 8b 28             	mov    (%r8),%rbp
 1000fdc:	48 89 6c 24 50       	mov    %rbp,0x50(%rsp)
 1000fe1:	49 8b 68 08          	mov    0x8(%r8),%rbp
 1000fe5:	48 89 6c 24 58       	mov    %rbp,0x58(%rsp)
	}
	if pt3 != nil {
 1000fea:	48 31 ed             	xor    %rbp,%rbp
 1000fed:	48 39 ef             	cmp    %rbp,%rdi
 1000ff0:	74 11                	je     1001003 <runtime.newTypeAssertionError+0x127>
		t3 = *pt3
 1000ff2:	48 8b 2f             	mov    (%rdi),%rbp
 1000ff5:	48 89 6c 24 30       	mov    %rbp,0x30(%rsp)
 1000ffa:	48 8b 6f 08          	mov    0x8(%rdi),%rbp
 1000ffe:	48 89 6c 24 38       	mov    %rbp,0x38(%rsp)
	}
	if ps1 != nil {
 1001003:	48 31 ed             	xor    %rbp,%rbp
 1001006:	48 39 ee             	cmp    %rbp,%rsi
 1001009:	74 0f                	je     100101a <runtime.newTypeAssertionError+0x13e>
		s1 = *ps1
 100100b:	48 8b 2e             	mov    (%rsi),%rbp
 100100e:	48 89 6c 24 70       	mov    %rbp,0x70(%rsp)
 1001013:	8b 6e 08             	mov    0x8(%rsi),%ebp
 1001016:	89 6c 24 78          	mov    %ebp,0x78(%rsp)
	}
	if ps2 != nil {
 100101a:	48 31 ed             	xor    %rbp,%rbp
 100101d:	48 39 ea             	cmp    %rbp,%rdx
 1001020:	74 0f                	je     1001031 <runtime.newTypeAssertionError+0x155>
		s2 = *ps2
 1001022:	48 8b 2a             	mov    (%rdx),%rbp
 1001025:	48 89 6c 24 40       	mov    %rbp,0x40(%rsp)
 100102a:	8b 6a 08             	mov    0x8(%rdx),%ebp
 100102d:	89 6c 24 48          	mov    %ebp,0x48(%rsp)
	}
	if ps3 != nil {
 1001031:	48 31 ed             	xor    %rbp,%rbp
 1001034:	48 39 e9             	cmp    %rbp,%rcx
 1001037:	74 0f                	je     1001048 <runtime.newTypeAssertionError+0x16c>
		s3 = *ps3
 1001039:	48 8b 29             	mov    (%rcx),%rbp
 100103c:	48 89 6c 24 60       	mov    %rbp,0x60(%rsp)
 1001041:	8b 69 08             	mov    0x8(%rcx),%ebp
 1001044:	89 6c 24 68          	mov    %ebp,0x68(%rsp)
	}
	if pmeth != nil {
 1001048:	48 31 ed             	xor    %rbp,%rbp
 100104b:	48 39 e8             	cmp    %rbp,%rax
 100104e:	74 15                	je     1001065 <runtime.newTypeAssertionError+0x189>
		meth = *pmeth
 1001050:	48 8b 28             	mov    (%rax),%rbp
 1001053:	48 89 ac 24 80 00 00 	mov    %rbp,0x80(%rsp)
 100105a:	00 
 100105b:	8b 68 08             	mov    0x8(%rax),%ebp
 100105e:	89 ac 24 88 00 00 00 	mov    %ebp,0x88(%rsp)
	}
	*ret = &TypeAssertionError{t1, t2, t3, s1, s2, s3, meth}
 1001065:	c7 04 24 70 00 00 00 	movl   $0x70,(%rsp)
 100106c:	e8 03 21 00 00       	callq  1003174 <runtime.new>
 1001071:	48 8b 44 24 08       	mov    0x8(%rsp),%rax
 1001076:	48 8b 6c 24 20       	mov    0x20(%rsp),%rbp
 100107b:	48 89 28             	mov    %rbp,(%rax)
 100107e:	48 8b 6c 24 28       	mov    0x28(%rsp),%rbp
 1001083:	48 89 68 08          	mov    %rbp,0x8(%rax)
 1001087:	48 89 c3             	mov    %rax,%rbx
 100108a:	48 83 c3 10          	add    $0x10,%rbx
 100108e:	48 8b 6c 24 50       	mov    0x50(%rsp),%rbp
 1001093:	48 89 2b             	mov    %rbp,(%rbx)
 1001096:	48 8b 6c 24 58       	mov    0x58(%rsp),%rbp
 100109b:	48 89 6b 08          	mov    %rbp,0x8(%rbx)
 100109f:	48 89 c3             	mov    %rax,%rbx
 10010a2:	48 83 c3 20          	add    $0x20,%rbx
 10010a6:	48 8b 6c 24 30       	mov    0x30(%rsp),%rbp
 10010ab:	48 89 2b             	mov    %rbp,(%rbx)
 10010ae:	48 8b 6c 24 38       	mov    0x38(%rsp),%rbp
 10010b3:	48 89 6b 08          	mov    %rbp,0x8(%rbx)
 10010b7:	48 89 c3             	mov    %rax,%rbx
 10010ba:	48 83 c3 30          	add    $0x30,%rbx
 10010be:	48 8b 6c 24 70       	mov    0x70(%rsp),%rbp
 10010c3:	48 89 2b             	mov    %rbp,(%rbx)
 10010c6:	8b 6c 24 78          	mov    0x78(%rsp),%ebp
 10010ca:	89 6b 08             	mov    %ebp,0x8(%rbx)
 10010cd:	48 89 c3             	mov    %rax,%rbx
 10010d0:	48 83 c3 40          	add    $0x40,%rbx
 10010d4:	48 8b 6c 24 40       	mov    0x40(%rsp),%rbp
 10010d9:	48 89 2b             	mov    %rbp,(%rbx)
 10010dc:	8b 6c 24 48          	mov    0x48(%rsp),%ebp
 10010e0:	89 6b 08             	mov    %ebp,0x8(%rbx)
 10010e3:	48 89 c3             	mov    %rax,%rbx
 10010e6:	48 83 c3 50          	add    $0x50,%rbx
 10010ea:	48 8b 6c 24 60       	mov    0x60(%rsp),%rbp
 10010ef:	48 89 2b             	mov    %rbp,(%rbx)
 10010f2:	8b 6c 24 68          	mov    0x68(%rsp),%ebp
 10010f6:	89 6b 08             	mov    %ebp,0x8(%rbx)
 10010f9:	48 89 c3             	mov    %rax,%rbx
 10010fc:	48 83 c3 60          	add    $0x60,%rbx
 1001100:	48 8b ac 24 80 00 00 	mov    0x80(%rsp),%rbp
 1001107:	00 
 1001108:	48 89 2b             	mov    %rbp,(%rbx)
 100110b:	8b ac 24 88 00 00 00 	mov    0x88(%rsp),%ebp
 1001112:	89 6b 08             	mov    %ebp,0x8(%rbx)
 1001115:	48 c7 04 24 b0 18 01 	movq   $0x10118b0,(%rsp)
 100111c:	01 
 100111d:	48 89 44 24 08       	mov    %rax,0x8(%rsp)
 1001122:	e8 05 10 00 00       	callq  100212c <runtime.convT2E>
 1001127:	48 8d 74 24 10       	lea    0x10(%rsp),%rsi
 100112c:	48 8b bc 24 d0 00 00 	mov    0xd0(%rsp),%rdi
 1001133:	00 
 1001134:	48 a5                	movsq  %ds:(%rsi),%es:(%rdi)
 1001136:	48 a5                	movsq  %ds:(%rsi),%es:(%rdi)
}
 1001138:	48 81 c4 90 00 00 00 	add    $0x90,%rsp
 100113f:	c3                   	retq   

0000000001001140 <runtime.errorString.RuntimeError>:

// An errorString represents a runtime error described by a single string.
type errorString string

func (e errorString) RuntimeError() {}
 1001140:	64 48 8b 0c 25 f0 ff 	mov    %fs:0xfffffffffffffff0,%rcx
 1001147:	ff ff 
 1001149:	48 3b 21             	cmp    (%rcx),%rsp
 100114c:	77 05                	ja     1001153 <runtime.errorString.RuntimeError+0x13>
 100114e:	e8 02 08 00 00       	callq  1001955 <runtime.morestack16>
 1001153:	c3                   	retq   

0000000001001154 <runtime.errorString.String>:

func (e errorString) String() string {
 1001154:	64 48 8b 0c 25 f0 ff 	mov    %fs:0xfffffffffffffff0,%rcx
 100115b:	ff ff 
 100115d:	48 3b 21             	cmp    (%rcx),%rsp
 1001160:	77 05                	ja     1001167 <runtime.errorString.String+0x13>
 1001162:	e8 00 08 00 00       	callq  1001967 <runtime.morestack32>
 1001167:	48 83 ec 38          	sub    $0x38,%rsp
	return "runtime error: " + string(e)
 100116b:	c7 04 24 02 00 00 00 	movl   $0x2,(%rsp)
 1001172:	48 8d 34 25 90 5b 01 	lea    0x1015b90,%rsi
 1001179:	01 
 100117a:	48 8d 7c 24 08       	lea    0x8(%rsp),%rdi
 100117f:	48 a5                	movsq  %ds:(%rsi),%es:(%rdi)
 1001181:	48 a5                	movsq  %ds:(%rsi),%es:(%rdi)
 1001183:	48 8d 5c 24 18       	lea    0x18(%rsp),%rbx
 1001188:	48 8b 6c 24 40       	mov    0x40(%rsp),%rbp
 100118d:	48 89 2b             	mov    %rbp,(%rbx)
 1001190:	8b 6c 24 48          	mov    0x48(%rsp),%ebp
 1001194:	89 6b 08             	mov    %ebp,0x8(%rbx)
 1001197:	e8 d3 a8 00 00       	callq  100ba6f <runtime.concatstring>
 100119c:	48 8b 5c 24 28       	mov    0x28(%rsp),%rbx
 10011a1:	48 89 5c 24 50       	mov    %rbx,0x50(%rsp)
 10011a6:	8b 5c 24 30          	mov    0x30(%rsp),%ebx
 10011aa:	89 5c 24 58          	mov    %ebx,0x58(%rsp)
 10011ae:	48 83 c4 38          	add    $0x38,%rsp
 10011b2:	c3                   	retq   

00000000010011b3 <runtime.newErrorString>:
}

// For calling from C.
func newErrorString(s string, ret *interface{}) {
 10011b3:	64 48 8b 0c 25 f0 ff 	mov    %fs:0xfffffffffffffff0,%rcx
 10011ba:	ff ff 
 10011bc:	48 3b 21             	cmp    (%rcx),%rsp
 10011bf:	77 05                	ja     10011c6 <runtime.newErrorString+0x13>
 10011c1:	e8 98 07 00 00       	callq  100195e <runtime.morestack24>
 10011c6:	48 83 ec 28          	sub    $0x28,%rsp
	*ret = errorString(s)
 10011ca:	48 c7 04 24 08 0b 01 	movq   $0x1010b08,(%rsp)
 10011d1:	01 
 10011d2:	48 8d 5c 24 08       	lea    0x8(%rsp),%rbx
 10011d7:	48 8b 6c 24 30       	mov    0x30(%rsp),%rbp
 10011dc:	48 89 2b             	mov    %rbp,(%rbx)
 10011df:	8b 6c 24 38          	mov    0x38(%rsp),%ebp
 10011e3:	89 6b 08             	mov    %ebp,0x8(%rbx)
 10011e6:	e8 41 0f 00 00       	callq  100212c <runtime.convT2E>
 10011eb:	48 8d 74 24 18       	lea    0x18(%rsp),%rsi
 10011f0:	48 8b 7c 24 40       	mov    0x40(%rsp),%rdi
 10011f5:	48 a5                	movsq  %ds:(%rsi),%es:(%rdi)
 10011f7:	48 a5                	movsq  %ds:(%rsi),%es:(%rdi)
}
 10011f9:	48 83 c4 28          	add    $0x28,%rsp
 10011fd:	c3                   	retq   

00000000010011fe <runtime.printany>:

// For calling from C.
// Prints an argument passed to panic.
// There's room for arbitrary complexity here, but we keep it
// simple and handle just a few important cases: int, string, and Stringer.
func printany(i interface{}) {
 10011fe:	64 48 8b 0c 25 f0 ff 	mov    %fs:0xfffffffffffffff0,%rcx
 1001205:	ff ff 
 1001207:	48 3b 21             	cmp    (%rcx),%rsp
 100120a:	77 05                	ja     1001211 <runtime.printany+0x13>
 100120c:	e8 44 07 00 00       	callq  1001955 <runtime.morestack16>
 1001211:	48 83 ec 78          	sub    $0x78,%rsp
	switch v := i.(type) {
 1001215:	48 8b 9c 24 80 00 00 	mov    0x80(%rsp),%rbx
 100121c:	00 
 100121d:	48 89 5c 24 68       	mov    %rbx,0x68(%rsp)
 1001222:	48 8b 9c 24 88 00 00 	mov    0x88(%rsp),%rbx
 1001229:	00 
 100122a:	48 89 5c 24 70       	mov    %rbx,0x70(%rsp)
		print("nil")
	case stringer:
		print(v.String())
	case int:
		print(v)
	case string:
 100122f:	48 8d 1c 24          	lea    (%rsp),%rbx
 1001233:	48 8b 6c 24 68       	mov    0x68(%rsp),%rbp
 1001238:	48 89 2b             	mov    %rbp,(%rbx)
 100123b:	48 8b 6c 24 70       	mov    0x70(%rsp),%rbp
 1001240:	48 89 6b 08          	mov    %rbp,0x8(%rbx)
 1001244:	e8 6b 14 00 00       	callq  10026b4 <runtime.efacethash>
 1001249:	8b 5c 24 10          	mov    0x10(%rsp),%ebx
 100124d:	89 5c 24 34          	mov    %ebx,0x34(%rsp)
 1001251:	48 8d 5c 24 68       	lea    0x68(%rsp),%rbx
 1001256:	48 83 3b 00          	cmpq   $0x0,(%rbx)
 100125a:	75 2e                	jne    100128a <runtime.printany+0x8c>
// Prints an argument passed to panic.
// There's room for arbitrary complexity here, but we keep it
// simple and handle just a few important cases: int, string, and Stringer.
func printany(i interface{}) {
	switch v := i.(type) {
	case nil:
 100125c:	48 8b 5c 24 68       	mov    0x68(%rsp),%rbx
 1001261:	48 89 5c 24 38       	mov    %rbx,0x38(%rsp)
 1001266:	48 8b 5c 24 70       	mov    0x70(%rsp),%rbx
 100126b:	48 89 5c 24 40       	mov    %rbx,0x40(%rsp)
		print("nil")
 1001270:	48 8d 34 25 a0 3f 01 	lea    0x1013fa0,%rsi
 1001277:	01 
 1001278:	48 8d 3c 24          	lea    (%rsp),%rdi
 100127c:	48 a5                	movsq  %ds:(%rsi),%es:(%rdi)
 100127e:	48 a5                	movsq  %ds:(%rsi),%es:(%rdi)
 1001280:	e8 43 6a 00 00       	callq  1007cc8 <runtime.printstring>
	case string:
		print(v)
	default:
		print("(", typestring(i), ") ", i)
	}
}
 1001285:	48 83 c4 78          	add    $0x78,%rsp
 1001289:	c3                   	retq   
		print("nil")
	case stringer:
		print(v.String())
	case int:
		print(v)
	case string:
 100128a:	48 c7 04 24 08 03 01 	movq   $0x1010308,(%rsp)
 1001291:	01 
 1001292:	48 8d 5c 24 08       	lea    0x8(%rsp),%rbx
 1001297:	48 8b 6c 24 68       	mov    0x68(%rsp),%rbp
 100129c:	48 89 2b             	mov    %rbp,(%rbx)
 100129f:	48 8b 6c 24 70       	mov    0x70(%rsp),%rbp
 10012a4:	48 89 6b 08          	mov    %rbp,0x8(%rbx)
 10012a8:	e8 54 0f 00 00       	callq  1002201 <runtime.assertE2I2>
 10012ad:	48 8d 5c 24 18       	lea    0x18(%rsp),%rbx
 10012b2:	48 8b 2b             	mov    (%rbx),%rbp
 10012b5:	48 89 6c 24 48       	mov    %rbp,0x48(%rsp)
 10012ba:	48 8b 6b 08          	mov    0x8(%rbx),%rbp
 10012be:	48 89 6c 24 50       	mov    %rbp,0x50(%rsp)
 10012c3:	8a 5c 24 28          	mov    0x28(%rsp),%bl
 10012c7:	88 d8                	mov    %bl,%al
 10012c9:	80 f8 00             	cmp    $0x0,%al
 10012cc:	74 2a                	je     10012f8 <runtime.printany+0xfa>
func printany(i interface{}) {
	switch v := i.(type) {
	case nil:
		print("nil")
	case stringer:
		print(v.String())
 10012ce:	48 8d 74 24 48       	lea    0x48(%rsp),%rsi
 10012d3:	48 8b 5e 08          	mov    0x8(%rsi),%rbx
 10012d7:	48 89 1c 24          	mov    %rbx,(%rsp)
 10012db:	48 8b 36             	mov    (%rsi),%rsi
 10012de:	48 8b 76 20          	mov    0x20(%rsi),%rsi
 10012e2:	ff d6                	callq  *%rsi
 10012e4:	48 8d 74 24 08       	lea    0x8(%rsp),%rsi
 10012e9:	48 8d 3c 24          	lea    (%rsp),%rdi
 10012ed:	48 a5                	movsq  %ds:(%rsi),%es:(%rdi)
 10012ef:	48 a5                	movsq  %ds:(%rsi),%es:(%rdi)
 10012f1:	e8 d2 69 00 00       	callq  1007cc8 <runtime.printstring>
	case string:
		print(v)
	default:
		print("(", typestring(i), ") ", i)
	}
}
 10012f6:	eb 8d                	jmp    1001285 <runtime.printany+0x87>
		print("nil")
	case stringer:
		print(v.String())
	case int:
		print(v)
	case string:
 10012f8:	8b 5c 24 34          	mov    0x34(%rsp),%ebx
 10012fc:	81 fb b4 5c ff e0    	cmp    $0xe0ff5cb4,%ebx
 1001302:	75 5f                	jne    1001363 <runtime.printany+0x165>
 1001304:	48 c7 04 24 48 f2 00 	movq   $0x100f248,(%rsp)
 100130b:	01 
 100130c:	48 8d 5c 24 08       	lea    0x8(%rsp),%rbx
 1001311:	48 8b 6c 24 68       	mov    0x68(%rsp),%rbp
 1001316:	48 89 2b             	mov    %rbp,(%rbx)
 1001319:	48 8b 6c 24 70       	mov    0x70(%rsp),%rbp
 100131e:	48 89 6b 08          	mov    %rbp,0x8(%rbx)
 1001322:	e8 5c 0e 00 00       	callq  1002183 <runtime.assertE2T2>
 1001327:	48 8d 5c 24 18       	lea    0x18(%rsp),%rbx
 100132c:	48 8b 2b             	mov    (%rbx),%rbp
 100132f:	48 89 6c 24 58       	mov    %rbp,0x58(%rsp)
 1001334:	8b 6b 08             	mov    0x8(%rbx),%ebp
 1001337:	89 6c 24 60          	mov    %ebp,0x60(%rsp)
 100133b:	8a 5c 24 28          	mov    0x28(%rsp),%bl
 100133f:	88 d8                	mov    %bl,%al
 1001341:	80 f8 00             	cmp    $0x0,%al
 1001344:	74 1d                	je     1001363 <runtime.printany+0x165>
		print(v)
 1001346:	48 8d 1c 24          	lea    (%rsp),%rbx
 100134a:	48 8b 6c 24 58       	mov    0x58(%rsp),%rbp
 100134f:	48 89 2b             	mov    %rbp,(%rbx)
 1001352:	8b 6c 24 60          	mov    0x60(%rsp),%ebp
 1001356:	89 6b 08             	mov    %ebp,0x8(%rbx)
 1001359:	e8 6a 69 00 00       	callq  1007cc8 <runtime.printstring>
	default:
		print("(", typestring(i), ") ", i)
	}
}
 100135e:	e9 22 ff ff ff       	jmpq   1001285 <runtime.printany+0x87>
		print("nil")
	case stringer:
		print(v.String())
	case int:
		print(v)
	case string:
 1001363:	8b 5c 24 34          	mov    0x34(%rsp),%ebx
 1001367:	81 fb fa 71 53 f7    	cmp    $0xf75371fa,%ebx
 100136d:	75 4b                	jne    10013ba <runtime.printany+0x1bc>
 100136f:	48 c7 04 24 e8 f0 00 	movq   $0x100f0e8,(%rsp)
 1001376:	01 
 1001377:	48 8d 5c 24 08       	lea    0x8(%rsp),%rbx
 100137c:	48 8b 6c 24 68       	mov    0x68(%rsp),%rbp
 1001381:	48 89 2b             	mov    %rbp,(%rbx)
 1001384:	48 8b 6c 24 70       	mov    0x70(%rsp),%rbp
 1001389:	48 89 6b 08          	mov    %rbp,0x8(%rbx)
 100138d:	e8 f1 0d 00 00       	callq  1002183 <runtime.assertE2T2>
 1001392:	8b 5c 24 18          	mov    0x18(%rsp),%ebx
 1001396:	89 5c 24 30          	mov    %ebx,0x30(%rsp)
 100139a:	8a 5c 24 1c          	mov    0x1c(%rsp),%bl
 100139e:	88 d8                	mov    %bl,%al
 10013a0:	80 f8 00             	cmp    $0x0,%al
 10013a3:	74 15                	je     10013ba <runtime.printany+0x1bc>
	case nil:
		print("nil")
	case stringer:
		print(v.String())
	case int:
		print(v)
 10013a5:	8b 5c 24 30          	mov    0x30(%rsp),%ebx
 10013a9:	48 63 db             	movslq %ebx,%rbx
 10013ac:	48 89 1c 24          	mov    %rbx,(%rsp)
 10013b0:	e8 d1 67 00 00       	callq  1007b86 <runtime.printint>
	case string:
		print(v)
	default:
		print("(", typestring(i), ") ", i)
	}
}
 10013b5:	e9 cb fe ff ff       	jmpq   1001285 <runtime.printany+0x87>
		print(v.String())
	case int:
		print(v)
	case string:
		print(v)
	default:
 10013ba:	48 8b 5c 24 68       	mov    0x68(%rsp),%rbx
 10013bf:	48 8b 5c 24 70       	mov    0x70(%rsp),%rbx
		print("(", typestring(i), ") ", i)
 10013c4:	48 8d 34 25 80 3e 01 	lea    0x1013e80,%rsi
 10013cb:	01 
 10013cc:	48 8d 3c 24          	lea    (%rsp),%rdi
 10013d0:	48 a5                	movsq  %ds:(%rsi),%es:(%rdi)
 10013d2:	48 a5                	movsq  %ds:(%rsi),%es:(%rdi)
 10013d4:	e8 ef 68 00 00       	callq  1007cc8 <runtime.printstring>
 10013d9:	48 8d 1c 24          	lea    (%rsp),%rbx
 10013dd:	48 8b ac 24 80 00 00 	mov    0x80(%rsp),%rbp
 10013e4:	00 
 10013e5:	48 89 2b             	mov    %rbp,(%rbx)
 10013e8:	48 8b ac 24 88 00 00 	mov    0x88(%rsp),%rbp
 10013ef:	00 
 10013f0:	48 89 6b 08          	mov    %rbp,0x8(%rbx)
 10013f4:	e8 43 69 00 00       	callq  1007d3c <runtime.typestring>
 10013f9:	48 8d 74 24 10       	lea    0x10(%rsp),%rsi
 10013fe:	48 8d 3c 24          	lea    (%rsp),%rdi
 1001402:	48 a5                	movsq  %ds:(%rsi),%es:(%rdi)
 1001404:	48 a5                	movsq  %ds:(%rsi),%es:(%rdi)
 1001406:	e8 bd 68 00 00       	callq  1007cc8 <runtime.printstring>
 100140b:	48 8d 34 25 90 3e 01 	lea    0x1013e90,%rsi
 1001412:	01 
 1001413:	48 8d 3c 24          	lea    (%rsp),%rdi
 1001417:	48 a5                	movsq  %ds:(%rsi),%es:(%rdi)
 1001419:	48 a5                	movsq  %ds:(%rsi),%es:(%rdi)
 100141b:	e8 a8 68 00 00       	callq  1007cc8 <runtime.printstring>
 1001420:	48 8d 1c 24          	lea    (%rsp),%rbx
 1001424:	48 8b ac 24 80 00 00 	mov    0x80(%rsp),%rbp
 100142b:	00 
 100142c:	48 89 2b             	mov    %rbp,(%rbx)
 100142f:	48 8b ac 24 88 00 00 	mov    0x88(%rsp),%rbp
 1001436:	00 
 1001437:	48 89 6b 08          	mov    %rbp,0x8(%rbx)
 100143b:	e8 ff 07 00 00       	callq  1001c3f <runtime.printeface>
	}
}
 1001440:	e9 40 fe ff ff       	jmpq   1001285 <runtime.printany+0x87>

0000000001001445 <runtime.panicwrap>:

// called from generated code
func panicwrap(pkg, typ, meth string) {
 1001445:	64 48 8b 0c 25 f0 ff 	mov    %fs:0xfffffffffffffff0,%rcx
 100144c:	ff ff 
 100144e:	48 8d 44 24 d8       	lea    -0x28(%rsp),%rax
 1001453:	48 3b 01             	cmp    (%rcx),%rax
 1001456:	77 05                	ja     100145d <runtime.panicwrap+0x18>
 1001458:	e8 1c 05 00 00       	callq  1001979 <runtime.morestack48>
 100145d:	48 81 ec a8 00 00 00 	sub    $0xa8,%rsp
 1001464:	48 8b 8c 24 c0 00 00 	mov    0xc0(%rsp),%rcx
 100146b:	00 
 100146c:	8b 84 24 c8 00 00 00 	mov    0xc8(%rsp),%eax
	panic("value method " + pkg + "." + typ + "." + meth + " called using nil *" + typ + " pointer")
 1001473:	c7 04 24 09 00 00 00 	movl   $0x9,(%rsp)
 100147a:	48 8d 34 25 b0 5f 01 	lea    0x1015fb0,%rsi
 1001481:	01 
 1001482:	48 8d 7c 24 08       	lea    0x8(%rsp),%rdi
 1001487:	48 a5                	movsq  %ds:(%rsi),%es:(%rdi)
 1001489:	48 a5                	movsq  %ds:(%rsi),%es:(%rdi)
 100148b:	48 8d 5c 24 18       	lea    0x18(%rsp),%rbx
 1001490:	48 8b ac 24 b0 00 00 	mov    0xb0(%rsp),%rbp
 1001497:	00 
 1001498:	48 89 2b             	mov    %rbp,(%rbx)
 100149b:	8b ac 24 b8 00 00 00 	mov    0xb8(%rsp),%ebp
 10014a2:	89 6b 08             	mov    %ebp,0x8(%rbx)
 10014a5:	48 8d 34 25 a0 3e 01 	lea    0x1013ea0,%rsi
 10014ac:	01 
 10014ad:	48 8d 7c 24 28       	lea    0x28(%rsp),%rdi
 10014b2:	48 a5                	movsq  %ds:(%rsi),%es:(%rdi)
 10014b4:	48 a5                	movsq  %ds:(%rsi),%es:(%rdi)
 10014b6:	48 8d 5c 24 38       	lea    0x38(%rsp),%rbx
 10014bb:	48 89 0b             	mov    %rcx,(%rbx)
 10014be:	89 43 08             	mov    %eax,0x8(%rbx)
 10014c1:	48 8d 34 25 a0 3e 01 	lea    0x1013ea0,%rsi
 10014c8:	01 
 10014c9:	48 8d 7c 24 48       	lea    0x48(%rsp),%rdi
 10014ce:	48 a5                	movsq  %ds:(%rsi),%es:(%rdi)
 10014d0:	48 a5                	movsq  %ds:(%rsi),%es:(%rdi)
 10014d2:	48 8d 5c 24 58       	lea    0x58(%rsp),%rbx
 10014d7:	48 8b ac 24 d0 00 00 	mov    0xd0(%rsp),%rbp
 10014de:	00 
 10014df:	48 89 2b             	mov    %rbp,(%rbx)
 10014e2:	8b ac 24 d8 00 00 00 	mov    0xd8(%rsp),%ebp
 10014e9:	89 6b 08             	mov    %ebp,0x8(%rbx)
 10014ec:	48 8d 34 25 b0 52 01 	lea    0x10152b0,%rsi
 10014f3:	01 
 10014f4:	48 8d 7c 24 68       	lea    0x68(%rsp),%rdi
 10014f9:	48 a5                	movsq  %ds:(%rsi),%es:(%rdi)
 10014fb:	48 a5                	movsq  %ds:(%rsi),%es:(%rdi)
 10014fd:	48 8d 5c 24 78       	lea    0x78(%rsp),%rbx
 1001502:	48 89 0b             	mov    %rcx,(%rbx)
 1001505:	89 43 08             	mov    %eax,0x8(%rbx)
 1001508:	48 8d 34 25 b0 40 01 	lea    0x10140b0,%rsi
 100150f:	01 
 1001510:	48 8d bc 24 88 00 00 	lea    0x88(%rsp),%rdi
 1001517:	00 
 1001518:	48 a5                	movsq  %ds:(%rsi),%es:(%rdi)
 100151a:	48 a5                	movsq  %ds:(%rsi),%es:(%rdi)
 100151c:	e8 4e a5 00 00       	callq  100ba6f <runtime.concatstring>
 1001521:	48 8d b4 24 98 00 00 	lea    0x98(%rsp),%rsi
 1001528:	00 
 1001529:	48 8d 7c 24 08       	lea    0x8(%rsp),%rdi
 100152e:	48 a5                	movsq  %ds:(%rsi),%es:(%rdi)
 1001530:	48 a5                	movsq  %ds:(%rsi),%es:(%rdi)
 1001532:	48 c7 04 24 48 f2 00 	movq   $0x100f248,(%rsp)
 1001539:	01 
 100153a:	e8 ed 0b 00 00       	callq  100212c <runtime.convT2E>
 100153f:	48 8d 74 24 18       	lea    0x18(%rsp),%rsi
 1001544:	48 8d 3c 24          	lea    (%rsp),%rdi
 1001548:	48 a5                	movsq  %ds:(%rsi),%es:(%rdi)
 100154a:	48 a5                	movsq  %ds:(%rsi),%es:(%rdi)
 100154c:	e8 4b 81 00 00       	callq  100969c <runtime.panic>
}
 1001551:	48 81 c4 a8 00 00 00 	add    $0xa8,%rsp
 1001558:	c3                   	retq   

0000000001001559 <runtime.(*errorString).RuntimeError>:
 1001559:	64 48 8b 0c 25 f0 ff 	mov    %fs:0xfffffffffffffff0,%rcx
 1001560:	ff ff 
 1001562:	48 3b 21             	cmp    (%rcx),%rsp
 1001565:	77 05                	ja     100156c <runtime.(*errorString).RuntimeError+0x13>
 1001567:	e8 e0 03 00 00       	callq  100194c <runtime.morestack8>
 100156c:	48 83 ec 30          	sub    $0x30,%rsp
 1001570:	48 8b 5c 24 38       	mov    0x38(%rsp),%rbx
 1001575:	48 31 ed             	xor    %rbp,%rbp
 1001578:	48 39 eb             	cmp    %rbp,%rbx
 100157b:	75 37                	jne    10015b4 <runtime.(*errorString).RuntimeError+0x5b>
 100157d:	48 8d 34 25 c8 4f 01 	lea    0x1014fc8,%rsi
 1001584:	01 
 1001585:	48 8d 3c 24          	lea    (%rsp),%rdi
 1001589:	48 a5                	movsq  %ds:(%rsi),%es:(%rdi)
 100158b:	48 a5                	movsq  %ds:(%rsi),%es:(%rdi)
 100158d:	48 8d 34 25 d8 48 01 	lea    0x10148d8,%rsi
 1001594:	01 
 1001595:	48 8d 7c 24 10       	lea    0x10(%rsp),%rdi
 100159a:	48 a5                	movsq  %ds:(%rsi),%es:(%rdi)
 100159c:	48 a5                	movsq  %ds:(%rsi),%es:(%rdi)
 100159e:	48 8d 34 25 b0 57 01 	lea    0x10157b0,%rsi
 10015a5:	01 
 10015a6:	48 8d 7c 24 20       	lea    0x20(%rsp),%rdi
 10015ab:	48 a5                	movsq  %ds:(%rsi),%es:(%rdi)
 10015ad:	48 a5                	movsq  %ds:(%rsi),%es:(%rdi)
 10015af:	e8 91 fe ff ff       	callq  1001445 <runtime.panicwrap>
 10015b4:	48 8b 74 24 38       	mov    0x38(%rsp),%rsi
 10015b9:	48 8d 3c 24          	lea    (%rsp),%rdi
 10015bd:	48 a5                	movsq  %ds:(%rsi),%es:(%rdi)
 10015bf:	48 a5                	movsq  %ds:(%rsi),%es:(%rdi)
 10015c1:	e8 7a fb ff ff       	callq  1001140 <runtime.errorString.RuntimeError>
 10015c6:	48 83 c4 30          	add    $0x30,%rsp
 10015ca:	c3                   	retq   

00000000010015cb <runtime.(*errorString).String>:
 10015cb:	64 48 8b 0c 25 f0 ff 	mov    %fs:0xfffffffffffffff0,%rcx
 10015d2:	ff ff 
 10015d4:	48 3b 21             	cmp    (%rcx),%rsp
 10015d7:	77 05                	ja     10015de <runtime.(*errorString).String+0x13>
 10015d9:	e8 80 03 00 00       	callq  100195e <runtime.morestack24>
 10015de:	48 83 ec 30          	sub    $0x30,%rsp
 10015e2:	48 8b 5c 24 38       	mov    0x38(%rsp),%rbx
 10015e7:	48 31 ed             	xor    %rbp,%rbp
 10015ea:	48 39 eb             	cmp    %rbp,%rbx
 10015ed:	75 37                	jne    1001626 <runtime.(*errorString).String+0x5b>
 10015ef:	48 8d 34 25 c8 4f 01 	lea    0x1014fc8,%rsi
 10015f6:	01 
 10015f7:	48 8d 3c 24          	lea    (%rsp),%rdi
 10015fb:	48 a5                	movsq  %ds:(%rsi),%es:(%rdi)
 10015fd:	48 a5                	movsq  %ds:(%rsi),%es:(%rdi)
 10015ff:	48 8d 34 25 d8 48 01 	lea    0x10148d8,%rsi
 1001606:	01 
 1001607:	48 8d 7c 24 10       	lea    0x10(%rsp),%rdi
 100160c:	48 a5                	movsq  %ds:(%rsi),%es:(%rdi)
 100160e:	48 a5                	movsq  %ds:(%rsi),%es:(%rdi)
 1001610:	48 8d 34 25 18 45 01 	lea    0x1014518,%rsi
 1001617:	01 
 1001618:	48 8d 7c 24 20       	lea    0x20(%rsp),%rdi
 100161d:	48 a5                	movsq  %ds:(%rsi),%es:(%rdi)
 100161f:	48 a5                	movsq  %ds:(%rsi),%es:(%rdi)
 1001621:	e8 1f fe ff ff       	callq  1001445 <runtime.panicwrap>
 1001626:	48 8b 74 24 38       	mov    0x38(%rsp),%rsi
 100162b:	48 8d 3c 24          	lea    (%rsp),%rdi
 100162f:	48 a5                	movsq  %ds:(%rsi),%es:(%rdi)
 1001631:	48 a5                	movsq  %ds:(%rsi),%es:(%rdi)
 1001633:	e8 1c fb ff ff       	callq  1001154 <runtime.errorString.String>
 1001638:	48 8d 5c 24 10       	lea    0x10(%rsp),%rbx
 100163d:	48 8b 2b             	mov    (%rbx),%rbp
 1001640:	48 89 6c 24 40       	mov    %rbp,0x40(%rsp)
 1001645:	8b 6b 08             	mov    0x8(%rbx),%ebp
 1001648:	89 6c 24 48          	mov    %ebp,0x48(%rsp)
 100164c:	48 83 c4 30          	add    $0x30,%rsp
 1001650:	c3                   	retq   

0000000001001651 <_rt0_amd64>:

#include "amd64/asm.h"

TEXT _rt0_amd64(SB),7,$-8
	// copy arguments forward on an even stack
	MOVQ	0(DI), AX		// argc
 1001651:	48 8b 07             	mov    (%rdi),%rax
	LEAQ	8(DI), BX		// argv
 1001654:	48 8d 5f 08          	lea    0x8(%rdi),%rbx
	SUBQ	$(4*8+7), SP		// 2args 2auto
 1001658:	48 83 ec 27          	sub    $0x27,%rsp
	ANDQ	$~15, SP
 100165c:	48 83 e4 f0          	and    $0xfffffffffffffff0,%rsp
	MOVQ	AX, 16(SP)
 1001660:	48 89 44 24 10       	mov    %rax,0x10(%rsp)
	MOVQ	BX, 24(SP)
 1001665:	48 89 5c 24 18       	mov    %rbx,0x18(%rsp)

	// if there is an initcgo, call it.
	MOVQ	initcgo(SB), AX
 100166a:	48 8b 04 25 98 4e 02 	mov    0x1024e98,%rax
 1001671:	01 
	TESTQ	AX, AX
 1001672:	48 85 c0             	test   %rax,%rax
	JZ	needtls
 1001675:	74 0c                	je     1001683 <_rt0_amd64+0x32>
	CALL	AX
 1001677:	ff d0                	callq  *%rax
	CMPL	runtime·iswindows(SB), $0
 1001679:	83 3c 25 1c 4e 02 01 	cmpl   $0x0,0x1024e1c
 1001680:	00 
	JEQ ok
 1001681:	74 31                	je     10016b4 <_rt0_amd64+0x63>

needtls:
	LEAQ	runtime·tls0(SB), DI
 1001683:	48 8d 3c 25 70 4f 02 	lea    0x1024f70,%rdi
 100168a:	01 
	CALL	runtime·settls(SB)
 100168b:	e8 19 b3 00 00       	callq  100c9a9 <runtime.settls>

	// store through it, to make sure it works
	get_tls(BX)
	MOVQ	$0x123, g(BX)
 1001690:	64 48 c7 04 25 f0 ff 	movq   $0x123,%fs:0xfffffffffffffff0
 1001697:	ff ff 23 01 00 00 
	MOVQ	runtime·tls0(SB), AX
 100169d:	48 8b 04 25 70 4f 02 	mov    0x1024f70,%rax
 10016a4:	01 
	CMPQ	AX, $0x123
 10016a5:	48 3d 23 01 00 00    	cmp    $0x123,%rax
	JEQ 2(PC)
 10016ab:	74 07                	je     10016b4 <_rt0_amd64+0x63>
	MOVL	AX, 0	// abort
 10016ad:	89 04 25 00 00 00 00 	mov    %eax,0x0
ok:
	// set the per-goroutine and per-mach "registers"
	get_tls(BX)
	LEAQ	runtime·g0(SB), CX
 10016b4:	48 8d 0c 25 10 50 02 	lea    0x1025010,%rcx
 10016bb:	01 
	MOVQ	CX, g(BX)
 10016bc:	64 48 89 0c 25 f0 ff 	mov    %rcx,%fs:0xfffffffffffffff0
 10016c3:	ff ff 
	LEAQ	runtime·m0(SB), AX
 10016c5:	48 8d 04 25 c8 53 02 	lea    0x10253c8,%rax
 10016cc:	01 
	MOVQ	AX, m(BX)
 10016cd:	64 48 89 04 25 f8 ff 	mov    %rax,%fs:0xfffffffffffffff8
 10016d4:	ff ff 

	// save m->g0 = g0
	MOVQ	CX, m_g0(AX)
 10016d6:	48 89 08             	mov    %rcx,(%rax)

	// create istack out of the given (operating system) stack
	LEAQ	(-8192+104)(SP), AX
 10016d9:	48 8d 84 24 68 e0 ff 	lea    -0x1f98(%rsp),%rax
 10016e0:	ff 
	MOVQ	AX, g_stackguard(CX)
 10016e1:	48 89 01             	mov    %rax,(%rcx)
	MOVQ	SP, g_stackbase(CX)
 10016e4:	48 89 61 08          	mov    %rsp,0x8(%rcx)

	CLD				// convention is D is always left cleared
 10016e8:	fc                   	cld    
	CALL	runtime·check(SB)
 10016e9:	e8 e0 8a 00 00       	callq  100a1ce <runtime.check>

	MOVL	16(SP), AX		// copy argc
 10016ee:	8b 44 24 10          	mov    0x10(%rsp),%eax
	MOVL	AX, 0(SP)
 10016f2:	89 04 24             	mov    %eax,(%rsp)
	MOVQ	24(SP), AX		// copy argv
 10016f5:	48 8b 44 24 18       	mov    0x18(%rsp),%rax
	MOVQ	AX, 8(SP)
 10016fa:	48 89 44 24 08       	mov    %rax,0x8(%rsp)
	CALL	runtime·args(SB)
 10016ff:	e8 26 88 00 00       	callq  1009f2a <runtime.args>
	CALL	runtime·osinit(SB)
 1001704:	e8 12 b9 00 00       	callq  100d01b <runtime.osinit>
	CALL	runtime·schedinit(SB)
 1001709:	e8 ab 66 00 00       	callq  1007db9 <runtime.schedinit>

	// create a new goroutine to start program
	PUSHQ	$runtime·mainstart(SB)		// entry
 100170e:	68 27 17 00 01       	pushq  $0x1001727
	PUSHQ	$0			// arg size
 1001713:	6a 00                	pushq  $0x0
	CALL	runtime·newproc(SB)
 1001715:	e8 ac 7b 00 00       	callq  10092c6 <runtime.newproc>
	POPQ	AX
 100171a:	58                   	pop    %rax
	POPQ	AX
 100171b:	58                   	pop    %rax

	// start this M
	CALL	runtime·mstart(SB)
 100171c:	e8 2a 72 00 00       	callq  100894b <runtime.mstart>

	CALL	runtime·notok(SB)		// never returns
 1001721:	e8 cd b1 00 00       	callq  100c8f3 <runtime.notok>
	RET
 1001726:	c3                   	retq   

0000000001001727 <runtime.mainstart>:

TEXT runtime·mainstart(SB),7,$0
	CALL	main·init(SB)
 1001727:	e8 05 f5 ff ff       	callq  1000c31 <main.init>
	CALL	runtime·initdone(SB)
 100172c:	e8 e5 67 00 00       	callq  1007f16 <runtime.initdone>
	CALL	main·main(SB)
 1001731:	e8 ca f4 ff ff       	callq  1000c00 <main.main>
	PUSHQ	$0
 1001736:	6a 00                	pushq  $0x0
	CALL	runtime·exit(SB)
 1001738:	e8 34 b0 00 00       	callq  100c771 <runtime.exit>
	POPQ	AX
 100173d:	58                   	pop    %rax
	CALL	runtime·notok(SB)
 100173e:	e8 b0 b1 00 00       	callq  100c8f3 <runtime.notok>
	RET
 1001743:	c3                   	retq   

0000000001001744 <runtime.gosave>:
 */

// void gosave(Gobuf*)
// save state in Gobuf; setjmp
TEXT runtime·gosave(SB), 7, $0
	MOVQ	8(SP), AX		// gobuf
 1001744:	48 8b 44 24 08       	mov    0x8(%rsp),%rax
	LEAQ	8(SP), BX		// caller's SP
 1001749:	48 8d 5c 24 08       	lea    0x8(%rsp),%rbx
	MOVQ	BX, gobuf_sp(AX)
 100174e:	48 89 18             	mov    %rbx,(%rax)
	MOVQ	0(SP), BX		// caller's PC
 1001751:	48 8b 1c 24          	mov    (%rsp),%rbx
	MOVQ	BX, gobuf_pc(AX)
 1001755:	48 89 58 08          	mov    %rbx,0x8(%rax)
	get_tls(CX)
	MOVQ	g(CX), BX
 1001759:	64 48 8b 1c 25 f0 ff 	mov    %fs:0xfffffffffffffff0,%rbx
 1001760:	ff ff 
	MOVQ	BX, gobuf_g(AX)
 1001762:	48 89 58 10          	mov    %rbx,0x10(%rax)
	RET
 1001766:	c3                   	retq   

0000000001001767 <runtime.gogo>:

// void gogo(Gobuf*, uintptr)
// restore state from Gobuf; longjmp
TEXT runtime·gogo(SB), 7, $0
	MOVQ	16(SP), AX		// return 2nd arg
 1001767:	48 8b 44 24 10       	mov    0x10(%rsp),%rax
	MOVQ	8(SP), BX		// gobuf
 100176c:	48 8b 5c 24 08       	mov    0x8(%rsp),%rbx
	MOVQ	gobuf_g(BX), DX
 1001771:	48 8b 53 10          	mov    0x10(%rbx),%rdx
	MOVQ	0(DX), CX		// make sure g != nil
 1001775:	48 8b 0a             	mov    (%rdx),%rcx
	get_tls(CX)
	MOVQ	DX, g(CX)
 1001778:	64 48 89 14 25 f0 ff 	mov    %rdx,%fs:0xfffffffffffffff0
 100177f:	ff ff 
	MOVQ	gobuf_sp(BX), SP	// restore SP
 1001781:	48 8b 23             	mov    (%rbx),%rsp
	MOVQ	gobuf_pc(BX), BX
 1001784:	48 8b 5b 08          	mov    0x8(%rbx),%rbx
	JMP	BX
 1001788:	ff e3                	jmpq   *%rbx

000000000100178a <runtime.gogocall>:

// void gogocall(Gobuf*, void (*fn)(void))
// restore state from Gobuf but then call fn.
// (call fn, returning to state in Gobuf)
TEXT runtime·gogocall(SB), 7, $0
	MOVQ	16(SP), AX		// fn
 100178a:	48 8b 44 24 10       	mov    0x10(%rsp),%rax
	MOVQ	8(SP), BX		// gobuf
 100178f:	48 8b 5c 24 08       	mov    0x8(%rsp),%rbx
	MOVQ	gobuf_g(BX), DX
 1001794:	48 8b 53 10          	mov    0x10(%rbx),%rdx
	get_tls(CX)
	MOVQ	DX, g(CX)
 1001798:	64 48 89 14 25 f0 ff 	mov    %rdx,%fs:0xfffffffffffffff0
 100179f:	ff ff 
	MOVQ	0(DX), CX	// make sure g != nil
 10017a1:	48 8b 0a             	mov    (%rdx),%rcx
	MOVQ	gobuf_sp(BX), SP	// restore SP
 10017a4:	48 8b 23             	mov    (%rbx),%rsp
	MOVQ	gobuf_pc(BX), BX
 10017a7:	48 8b 5b 08          	mov    0x8(%rbx),%rbx
	PUSHQ	BX
 10017ab:	53                   	push   %rbx
	JMP	AX
 10017ac:	ff e0                	jmpq   *%rax

00000000010017ae <runtime.mcall>:
// void mcall(void (*fn)(G*))
// Switch to m->g0's stack, call fn(g).
// Fn must never return.  It should gogo(&g->sched)
// to keep running g.
TEXT runtime·mcall(SB), 7, $0
	MOVQ	fn+0(FP), DI
 10017ae:	48 8b 7c 24 08       	mov    0x8(%rsp),%rdi
	
	get_tls(CX)
	MOVQ	g(CX), AX	// save state in g->gobuf
 10017b3:	64 48 8b 04 25 f0 ff 	mov    %fs:0xfffffffffffffff0,%rax
 10017ba:	ff ff 
	MOVQ	0(SP), BX	// caller's PC
 10017bc:	48 8b 1c 24          	mov    (%rsp),%rbx
	MOVQ	BX, (g_sched+gobuf_pc)(AX)
 10017c0:	48 89 58 28          	mov    %rbx,0x28(%rax)
	LEAQ	8(SP), BX	// caller's SP
 10017c4:	48 8d 5c 24 08       	lea    0x8(%rsp),%rbx
	MOVQ	BX, (g_sched+gobuf_sp)(AX)
 10017c9:	48 89 58 20          	mov    %rbx,0x20(%rax)
	MOVQ	AX, (g_sched+gobuf_g)(AX)
 10017cd:	48 89 40 30          	mov    %rax,0x30(%rax)

	// switch to m->g0 & its stack, call fn
	MOVQ	m(CX), BX
 10017d1:	64 48 8b 1c 25 f8 ff 	mov    %fs:0xfffffffffffffff8,%rbx
 10017d8:	ff ff 
	MOVQ	m_g0(BX), SI
 10017da:	48 8b 33             	mov    (%rbx),%rsi
	CMPQ	SI, AX	// if g == m->g0 call badmcall
 10017dd:	48 39 c6             	cmp    %rax,%rsi
	JNE	2(PC)
 10017e0:	75 05                	jne    10017e7 <runtime.mcall+0x39>
	CALL	runtime·badmcall(SB)
 10017e2:	e8 88 81 00 00       	callq  100996f <runtime.badmcall>
	MOVQ	SI, g(CX)	// g = m->g0
 10017e7:	64 48 89 34 25 f0 ff 	mov    %rsi,%fs:0xfffffffffffffff0
 10017ee:	ff ff 
	MOVQ	(g_sched+gobuf_sp)(SI), SP	// sp = m->g0->gobuf.sp
 10017f0:	48 8b 66 20          	mov    0x20(%rsi),%rsp
	PUSHQ	AX
 10017f4:	50                   	push   %rax
	CALL	DI
 10017f5:	ff d7                	callq  *%rdi
	POPQ	AX
 10017f7:	58                   	pop    %rax
	CALL	runtime·badmcall2(SB)
 10017f8:	e8 9c 81 00 00       	callq  1009999 <runtime.badmcall2>
	RET
 10017fd:	c3                   	retq   

00000000010017fe <runtime.morestack>:

// Called during function prolog when more stack is needed.
// Caller has already done get_tls(CX); MOVQ m(CX), BX.
TEXT runtime·morestack(SB),7,$0
	// Cannot grow scheduler stack (m->g0).
	MOVQ	m_g0(BX), SI
 10017fe:	48 8b 33             	mov    (%rbx),%rsi
	CMPQ	g(CX), SI
 1001801:	64 48 39 34 25 f0 ff 	cmp    %rsi,%fs:0xfffffffffffffff0
 1001808:	ff ff 
	JNE	2(PC)
 100180a:	75 02                	jne    100180e <runtime.morestack+0x10>
	INT	$3
 100180c:	cd 03                	int    $0x3

	// Called from f.
	// Set m->morebuf to f's caller.
	MOVQ	8(SP), AX	// f's caller's PC
 100180e:	48 8b 44 24 08       	mov    0x8(%rsp),%rax
	MOVQ	AX, (m_morebuf+gobuf_pc)(BX)
 1001813:	48 89 43 20          	mov    %rax,0x20(%rbx)
	LEAQ	16(SP), AX	// f's caller's SP
 1001817:	48 8d 44 24 10       	lea    0x10(%rsp),%rax
	MOVQ	AX, (m_morebuf+gobuf_sp)(BX)
 100181c:	48 89 43 18          	mov    %rax,0x18(%rbx)
	MOVQ	AX, m_moreargp(BX)
 1001820:	48 89 43 10          	mov    %rax,0x10(%rbx)
	get_tls(CX)
	MOVQ	g(CX), SI
 1001824:	64 48 8b 34 25 f0 ff 	mov    %fs:0xfffffffffffffff0,%rsi
 100182b:	ff ff 
	MOVQ	SI, (m_morebuf+gobuf_g)(BX)
 100182d:	48 89 73 28          	mov    %rsi,0x28(%rbx)

	// Set m->morepc to f's PC.
	MOVQ	0(SP), AX
 1001831:	48 8b 04 24          	mov    (%rsp),%rax
	MOVQ	AX, m_morepc(BX)
 1001835:	48 89 43 08          	mov    %rax,0x8(%rbx)

	// Call newstack on m->g0's stack.
	MOVQ	m_g0(BX), BP
 1001839:	48 8b 2b             	mov    (%rbx),%rbp
	MOVQ	BP, g(CX)
 100183c:	64 48 89 2c 25 f0 ff 	mov    %rbp,%fs:0xfffffffffffffff0
 1001843:	ff ff 
	MOVQ	(g_sched+gobuf_sp)(BP), SP
 1001845:	48 8b 65 20          	mov    0x20(%rbp),%rsp
	CALL	runtime·newstack(SB)
 1001849:	e8 a4 76 00 00       	callq  1008ef2 <runtime.newstack>
	MOVQ	$0, 0x1003	// crash if newstack returns
 100184e:	48 c7 04 25 03 10 00 	movq   $0x0,0x1003
 1001855:	00 00 00 00 00 
	RET
 100185a:	c3                   	retq   

000000000100185b <reflect.call>:
// with the desired args running the desired function.
//
// func call(fn *byte, arg *byte, argsize uint32).
TEXT reflect·call(SB), 7, $0
	get_tls(CX)
	MOVQ	m(CX), BX
 100185b:	64 48 8b 1c 25 f8 ff 	mov    %fs:0xfffffffffffffff8,%rbx
 1001862:	ff ff 

	// Save our caller's state as the PC and SP to
	// restore when returning from f.
	MOVQ	0(SP), AX	// our caller's PC
 1001864:	48 8b 04 24          	mov    (%rsp),%rax
	MOVQ	AX, (m_morebuf+gobuf_pc)(BX)
 1001868:	48 89 43 20          	mov    %rax,0x20(%rbx)
	LEAQ	8(SP), AX	// our caller's SP
 100186c:	48 8d 44 24 08       	lea    0x8(%rsp),%rax
	MOVQ	AX, (m_morebuf+gobuf_sp)(BX)
 1001871:	48 89 43 18          	mov    %rax,0x18(%rbx)
	MOVQ	g(CX), AX
 1001875:	64 48 8b 04 25 f0 ff 	mov    %fs:0xfffffffffffffff0,%rax
 100187c:	ff ff 
	MOVQ	AX, (m_morebuf+gobuf_g)(BX)
 100187e:	48 89 43 28          	mov    %rax,0x28(%rbx)
	// We set f's frame size to 1, as a hint to newstack
	// that this is a call from reflect·call.
	// If it turns out that f needs a larger frame than
	// the default stack, f's usual stack growth prolog will
	// allocate a new segment (and recopy the arguments).
	MOVQ	8(SP), AX	// fn
 1001882:	48 8b 44 24 08       	mov    0x8(%rsp),%rax
	MOVQ	16(SP), DX	// arg frame
 1001887:	48 8b 54 24 10       	mov    0x10(%rsp),%rdx
	MOVL	24(SP), CX	// arg size
 100188c:	8b 4c 24 18          	mov    0x18(%rsp),%ecx

	MOVQ	AX, m_morepc(BX)	// f's PC
 1001890:	48 89 43 08          	mov    %rax,0x8(%rbx)
	MOVQ	DX, m_moreargp(BX)	// argument frame pointer
 1001894:	48 89 53 10          	mov    %rdx,0x10(%rbx)
	MOVL	CX, m_moreargsize(BX)	// f's argument size
 1001898:	89 4b 34             	mov    %ecx,0x34(%rbx)
	MOVL	$1, m_moreframesize(BX)	// f's frame size
 100189b:	c7 43 30 01 00 00 00 	movl   $0x1,0x30(%rbx)

	// Call newstack on m->g0's stack.
	MOVQ	m_g0(BX), BP
 10018a2:	48 8b 2b             	mov    (%rbx),%rbp
	get_tls(CX)
	MOVQ	BP, g(CX)
 10018a5:	64 48 89 2c 25 f0 ff 	mov    %rbp,%fs:0xfffffffffffffff0
 10018ac:	ff ff 
	MOVQ	(g_sched+gobuf_sp)(BP), SP
 10018ae:	48 8b 65 20          	mov    0x20(%rbp),%rsp
	CALL	runtime·newstack(SB)
 10018b2:	e8 3b 76 00 00       	callq  1008ef2 <runtime.newstack>
	MOVQ	$0, 0x1103	// crash if newstack returns
 10018b7:	48 c7 04 25 03 11 00 	movq   $0x0,0x1103
 10018be:	00 00 00 00 00 
	RET
 10018c3:	c3                   	retq   

00000000010018c4 <runtime.lessstack>:

// Return point when leaving stack.
TEXT runtime·lessstack(SB), 7, $0
	// Save return value in m->cret
	get_tls(CX)
	MOVQ	m(CX), BX
 10018c4:	64 48 8b 1c 25 f8 ff 	mov    %fs:0xfffffffffffffff8,%rbx
 10018cb:	ff ff 
	MOVQ	AX, m_cret(BX)
 10018cd:	48 89 43 38          	mov    %rax,0x38(%rbx)

	// Call oldstack on m->g0's stack.
	MOVQ	m_g0(BX), BP
 10018d1:	48 8b 2b             	mov    (%rbx),%rbp
	MOVQ	BP, g(CX)
 10018d4:	64 48 89 2c 25 f0 ff 	mov    %rbp,%fs:0xfffffffffffffff0
 10018db:	ff ff 
	MOVQ	(g_sched+gobuf_sp)(BP), SP
 10018dd:	48 8b 65 20          	mov    0x20(%rbp),%rsp
	CALL	runtime·oldstack(SB)
 10018e1:	e8 2b 75 00 00       	callq  1008e11 <runtime.oldstack>
	MOVQ	$0, 0x1004	// crash if oldstack returns
 10018e6:	48 c7 04 25 04 10 00 	movq   $0x0,0x1004
 10018ed:	00 00 00 00 00 
	RET
 10018f2:	c3                   	retq   

00000000010018f3 <runtime.morestack00>:

// morestack trampolines
TEXT runtime·morestack00(SB),7,$0
	get_tls(CX)
	MOVQ	m(CX), BX
 10018f3:	64 48 8b 1c 25 f8 ff 	mov    %fs:0xfffffffffffffff8,%rbx
 10018fa:	ff ff 
	MOVQ	$0, AX
 10018fc:	48 31 c0             	xor    %rax,%rax
	MOVQ	AX, m_moreframesize(BX)
 10018ff:	48 89 43 30          	mov    %rax,0x30(%rbx)
	MOVQ	$runtime·morestack(SB), AX
 1001903:	b8 fe 17 00 01       	mov    $0x10017fe,%eax
	JMP	AX
 1001908:	ff e0                	jmpq   *%rax

000000000100190a <runtime.morestack01>:

TEXT runtime·morestack01(SB),7,$0
	get_tls(CX)
	MOVQ	m(CX), BX
 100190a:	64 48 8b 1c 25 f8 ff 	mov    %fs:0xfffffffffffffff8,%rbx
 1001911:	ff ff 
	SHLQ	$32, AX
 1001913:	48 c1 e0 20          	shl    $0x20,%rax
	MOVQ	AX, m_moreframesize(BX)
 1001917:	48 89 43 30          	mov    %rax,0x30(%rbx)
	MOVQ	$runtime·morestack(SB), AX
 100191b:	b8 fe 17 00 01       	mov    $0x10017fe,%eax
	JMP	AX
 1001920:	ff e0                	jmpq   *%rax

0000000001001922 <runtime.morestack10>:

TEXT runtime·morestack10(SB),7,$0
	get_tls(CX)
	MOVQ	m(CX), BX
 1001922:	64 48 8b 1c 25 f8 ff 	mov    %fs:0xfffffffffffffff8,%rbx
 1001929:	ff ff 
	MOVLQZX	AX, AX
 100192b:	8b c0                	mov    %eax,%eax
	MOVQ	AX, m_moreframesize(BX)
 100192d:	48 89 43 30          	mov    %rax,0x30(%rbx)
	MOVQ	$runtime·morestack(SB), AX
 1001931:	b8 fe 17 00 01       	mov    $0x10017fe,%eax
	JMP	AX
 1001936:	ff e0                	jmpq   *%rax

0000000001001938 <runtime.morestack11>:

TEXT runtime·morestack11(SB),7,$0
	get_tls(CX)
	MOVQ	m(CX), BX
 1001938:	64 48 8b 1c 25 f8 ff 	mov    %fs:0xfffffffffffffff8,%rbx
 100193f:	ff ff 
	MOVQ	AX, m_moreframesize(BX)
 1001941:	48 89 43 30          	mov    %rax,0x30(%rbx)
	MOVQ	$runtime·morestack(SB), AX
 1001945:	b8 fe 17 00 01       	mov    $0x10017fe,%eax
	JMP	AX
 100194a:	ff e0                	jmpq   *%rax

000000000100194c <runtime.morestack8>:

// subcases of morestack01
// with const of 8,16,...48
TEXT runtime·morestack8(SB),7,$0
	PUSHQ	$1
 100194c:	6a 01                	pushq  $0x1
	MOVQ	$morestack<>(SB), AX
 100194e:	b8 82 19 00 01       	mov    $0x1001982,%eax
	JMP	AX
 1001953:	ff e0                	jmpq   *%rax

0000000001001955 <runtime.morestack16>:

TEXT runtime·morestack16(SB),7,$0
	PUSHQ	$2
 1001955:	6a 02                	pushq  $0x2
	MOVQ	$morestack<>(SB), AX
 1001957:	b8 82 19 00 01       	mov    $0x1001982,%eax
	JMP	AX
 100195c:	ff e0                	jmpq   *%rax

000000000100195e <runtime.morestack24>:

TEXT runtime·morestack24(SB),7,$0
	PUSHQ	$3
 100195e:	6a 03                	pushq  $0x3
	MOVQ	$morestack<>(SB), AX
 1001960:	b8 82 19 00 01       	mov    $0x1001982,%eax
	JMP	AX
 1001965:	ff e0                	jmpq   *%rax

0000000001001967 <runtime.morestack32>:

TEXT runtime·morestack32(SB),7,$0
	PUSHQ	$4
 1001967:	6a 04                	pushq  $0x4
	MOVQ	$morestack<>(SB), AX
 1001969:	b8 82 19 00 01       	mov    $0x1001982,%eax
	JMP	AX
 100196e:	ff e0                	jmpq   *%rax

0000000001001970 <runtime.morestack40>:

TEXT runtime·morestack40(SB),7,$0
	PUSHQ	$5
 1001970:	6a 05                	pushq  $0x5
	MOVQ	$morestack<>(SB), AX
 1001972:	b8 82 19 00 01       	mov    $0x1001982,%eax
	JMP	AX
 1001977:	ff e0                	jmpq   *%rax

0000000001001979 <runtime.morestack48>:

TEXT runtime·morestack48(SB),7,$0
	PUSHQ	$6
 1001979:	6a 06                	pushq  $0x6
	MOVQ	$morestack<>(SB), AX
 100197b:	b8 82 19 00 01       	mov    $0x1001982,%eax
	JMP	AX
 1001980:	ff e0                	jmpq   *%rax

0000000001001982 <morestack>:

TEXT morestack<>(SB),7,$0
	get_tls(CX)
	MOVQ	m(CX), BX
 1001982:	64 48 8b 1c 25 f8 ff 	mov    %fs:0xfffffffffffffff8,%rbx
 1001989:	ff ff 
	POPQ	AX
 100198b:	58                   	pop    %rax
	SHLQ	$35, AX
 100198c:	48 c1 e0 23          	shl    $0x23,%rax
	MOVQ	AX, m_moreframesize(BX)
 1001990:	48 89 43 30          	mov    %rax,0x30(%rbx)
	MOVQ	$runtime·morestack(SB), AX
 1001994:	b8 fe 17 00 01       	mov    $0x10017fe,%eax
	JMP	AX
 1001999:	ff e0                	jmpq   *%rax

000000000100199b <runtime.cas>:
//		*val = new;
//		return 1;
//	} else
//		return 0;
TEXT runtime·cas(SB), 7, $0
	MOVQ	8(SP), BX
 100199b:	48 8b 5c 24 08       	mov    0x8(%rsp),%rbx
	MOVL	16(SP), AX
 10019a0:	8b 44 24 10          	mov    0x10(%rsp),%eax
	MOVL	20(SP), CX
 10019a4:	8b 4c 24 14          	mov    0x14(%rsp),%ecx
	LOCK
 10019a8:	f0 0f b1 0b          	lock cmpxchg %ecx,(%rbx)
	CMPXCHGL	CX, 0(BX)
	JZ 3(PC)
 10019ac:	74 03                	je     10019b1 <runtime.cas+0x16>
	MOVL	$0, AX
 10019ae:	31 c0                	xor    %eax,%eax
	RET
 10019b0:	c3                   	retq   
	MOVL	$1, AX
 10019b1:	b8 01 00 00 00       	mov    $0x1,%eax
	RET
 10019b6:	c3                   	retq   

00000000010019b7 <runtime.casp>:
//		*val = new;
//		return 1;
//	} else
//		return 0;
TEXT runtime·casp(SB), 7, $0
	MOVQ	8(SP), BX
 10019b7:	48 8b 5c 24 08       	mov    0x8(%rsp),%rbx
	MOVQ	16(SP), AX
 10019bc:	48 8b 44 24 10       	mov    0x10(%rsp),%rax
	MOVQ	24(SP), CX
 10019c1:	48 8b 4c 24 18       	mov    0x18(%rsp),%rcx
	LOCK
 10019c6:	f0 48 0f b1 0b       	lock cmpxchg %rcx,(%rbx)
	CMPXCHGQ	CX, 0(BX)
	JZ 3(PC)
 10019cb:	74 03                	je     10019d0 <runtime.casp+0x19>
	MOVL	$0, AX
 10019cd:	31 c0                	xor    %eax,%eax
	RET
 10019cf:	c3                   	retq   
	MOVL	$1, AX
 10019d0:	b8 01 00 00 00       	mov    $0x1,%eax
	RET
 10019d5:	c3                   	retq   

00000000010019d6 <runtime.xadd>:
// uint32 xadd(uint32 volatile *val, int32 delta)
// Atomically:
//	*val += delta;
//	return *val;
TEXT runtime·xadd(SB), 7, $0
	MOVQ	8(SP), BX
 10019d6:	48 8b 5c 24 08       	mov    0x8(%rsp),%rbx
	MOVL	16(SP), AX
 10019db:	8b 44 24 10          	mov    0x10(%rsp),%eax
	MOVL	AX, CX
 10019df:	89 c1                	mov    %eax,%ecx
	LOCK
 10019e1:	f0 0f c1 03          	lock xadd %eax,(%rbx)
	XADDL	AX, 0(BX)
	ADDL	CX, AX
 10019e5:	01 c8                	add    %ecx,%eax
	RET
 10019e7:	c3                   	retq   

00000000010019e8 <runtime.xchg>:

TEXT runtime·xchg(SB), 7, $0
	MOVQ	8(SP), BX
 10019e8:	48 8b 5c 24 08       	mov    0x8(%rsp),%rbx
	MOVL	16(SP), AX
 10019ed:	8b 44 24 10          	mov    0x10(%rsp),%eax
	XCHGL	AX, 0(BX)
 10019f1:	87 03                	xchg   %eax,(%rbx)
	RET
 10019f3:	c3                   	retq   

00000000010019f4 <runtime.procyield>:

TEXT runtime·procyield(SB),7,$0
	MOVL	8(SP), AX
 10019f4:	8b 44 24 08          	mov    0x8(%rsp),%eax
again:
	PAUSE
 10019f8:	f3 90                	pause  
	SUBL	$1, AX
 10019fa:	83 e8 01             	sub    $0x1,%eax
	JNZ	again
 10019fd:	75 f9                	jne    10019f8 <runtime.procyield+0x4>
	RET
 10019ff:	c3                   	retq   

0000000001001a00 <runtime.atomicstorep>:

TEXT runtime·atomicstorep(SB), 7, $0
	MOVQ	8(SP), BX
 1001a00:	48 8b 5c 24 08       	mov    0x8(%rsp),%rbx
	MOVQ	16(SP), AX
 1001a05:	48 8b 44 24 10       	mov    0x10(%rsp),%rax
	XCHGQ	AX, 0(BX)
 1001a0a:	48 87 03             	xchg   %rax,(%rbx)
	RET
 1001a0d:	c3                   	retq   

0000000001001a0e <runtime.atomicstore>:

TEXT runtime·atomicstore(SB), 7, $0
	MOVQ	8(SP), BX
 1001a0e:	48 8b 5c 24 08       	mov    0x8(%rsp),%rbx
	MOVL	16(SP), AX
 1001a13:	8b 44 24 10          	mov    0x10(%rsp),%eax
	XCHGL	AX, 0(BX)
 1001a17:	87 03                	xchg   %eax,(%rbx)
	RET
 1001a19:	c3                   	retq   

0000000001001a1a <return>:
// Dummy function to use in saved gobuf.PC,
// to match SP pointing at a return address.
// The gobuf.PC is unused by the contortions here
// but setting it to return will make the traceback code work.
TEXT return<>(SB),7,$0
	RET
 1001a1a:	c3                   	retq   

0000000001001a1b <runtime.asmcgocall>:
// asmcgocall(void(*fn)(void*), void *arg)
// Call fn(arg) on the scheduler stack,
// aligned appropriately for the gcc ABI.
// See cgocall.c for more details.
TEXT runtime·asmcgocall(SB),7,$0
	MOVQ	fn+0(FP), AX
 1001a1b:	48 8b 44 24 08       	mov    0x8(%rsp),%rax
	MOVQ	arg+8(FP), BX
 1001a20:	48 8b 5c 24 10       	mov    0x10(%rsp),%rbx
	MOVQ	SP, DX
 1001a25:	48 89 e2             	mov    %rsp,%rdx

	// Figure out if we need to switch to m->g0 stack.
	// We get called to create new OS threads too, and those
	// come in on the m->g0 stack already.
	get_tls(CX)
	MOVQ	m(CX), BP
 1001a28:	64 48 8b 2c 25 f8 ff 	mov    %fs:0xfffffffffffffff8,%rbp
 1001a2f:	ff ff 
	MOVQ	m_g0(BP), SI
 1001a31:	48 8b 75 00          	mov    0x0(%rbp),%rsi
	MOVQ	g(CX), DI
 1001a35:	64 48 8b 3c 25 f0 ff 	mov    %fs:0xfffffffffffffff0,%rdi
 1001a3c:	ff ff 
	CMPQ	SI, DI
 1001a3e:	48 39 fe             	cmp    %rdi,%rsi
	JEQ	6(PC)
 1001a41:	74 1d                	je     1001a60 <runtime.asmcgocall+0x45>
	MOVQ	SP, (g_sched+gobuf_sp)(DI)
 1001a43:	48 89 67 20          	mov    %rsp,0x20(%rdi)
	MOVQ	$return<>(SB), (g_sched+gobuf_pc)(DI)
 1001a47:	48 c7 47 28 1a 1a 00 	movq   $0x1001a1a,0x28(%rdi)
 1001a4e:	01 
	MOVQ	DI, (g_sched+gobuf_g)(DI)
 1001a4f:	48 89 7f 30          	mov    %rdi,0x30(%rdi)
	MOVQ	SI, g(CX)
 1001a53:	64 48 89 34 25 f0 ff 	mov    %rsi,%fs:0xfffffffffffffff0
 1001a5a:	ff ff 
	MOVQ	(g_sched+gobuf_sp)(SI), SP
 1001a5c:	48 8b 66 20          	mov    0x20(%rsi),%rsp

	// Now on a scheduling stack (a pthread-created stack).
	SUBQ	$32, SP
 1001a60:	48 83 ec 20          	sub    $0x20,%rsp
	ANDQ	$~15, SP	// alignment for gcc ABI
 1001a64:	48 83 e4 f0          	and    $0xfffffffffffffff0,%rsp
	MOVQ	DI, 16(SP)	// save g
 1001a68:	48 89 7c 24 10       	mov    %rdi,0x10(%rsp)
	MOVQ	DX, 8(SP)	// save SP
 1001a6d:	48 89 54 24 08       	mov    %rdx,0x8(%rsp)
	MOVQ	BX, DI		// DI = first argument in AMD64 ABI
 1001a72:	48 89 df             	mov    %rbx,%rdi
	MOVQ	BX, CX		// CX = first argument in Win64
 1001a75:	48 89 d9             	mov    %rbx,%rcx
	CALL	AX
 1001a78:	ff d0                	callq  *%rax

	// Restore registers, g, stack pointer.
	get_tls(CX)
	MOVQ	16(SP), DI
 1001a7a:	48 8b 7c 24 10       	mov    0x10(%rsp),%rdi
	MOVQ	DI, g(CX)
 1001a7f:	64 48 89 3c 25 f0 ff 	mov    %rdi,%fs:0xfffffffffffffff0
 1001a86:	ff ff 
	MOVQ	8(SP), SP
 1001a88:	48 8b 64 24 08       	mov    0x8(%rsp),%rsp
	RET
 1001a8d:	c3                   	retq   

0000000001001a8e <runtime.stackcheck>:
	RET

// check that SP is in range [g->stackbase, g->stackguard)
TEXT runtime·stackcheck(SB), 7, $0
	get_tls(CX)
	MOVQ	g(CX), AX
 1001a8e:	64 48 8b 04 25 f0 ff 	mov    %fs:0xfffffffffffffff0,%rax
 1001a95:	ff ff 
	CMPQ	g_stackbase(AX), SP
 1001a97:	48 39 60 08          	cmp    %rsp,0x8(%rax)
	JHI	2(PC)
 1001a9b:	77 02                	ja     1001a9f <runtime.stackcheck+0x11>
	INT	$3
 1001a9d:	cd 03                	int    $0x3
	CMPQ	SP, g_stackguard(AX)
 1001a9f:	48 3b 20             	cmp    (%rax),%rsp
	JHI	2(PC)
 1001aa2:	77 02                	ja     1001aa6 <runtime.stackcheck+0x18>
	INT	$3
 1001aa4:	cd 03                	int    $0x3
	RET
 1001aa6:	c3                   	retq   

0000000001001aa7 <runtime.memclr>:

TEXT runtime·memclr(SB),7,$0
	MOVQ	8(SP), DI		// arg 1 addr
 1001aa7:	48 8b 7c 24 08       	mov    0x8(%rsp),%rdi
	MOVQ	16(SP), CX		// arg 2 count
 1001aac:	48 8b 4c 24 10       	mov    0x10(%rsp),%rcx
	MOVQ	CX, BX
 1001ab1:	48 89 cb             	mov    %rcx,%rbx
	ANDQ	$7, BX
 1001ab4:	48 83 e3 07          	and    $0x7,%rbx
	SHRQ	$3, CX
 1001ab8:	48 c1 e9 03          	shr    $0x3,%rcx
	MOVQ	$0, AX
 1001abc:	48 31 c0             	xor    %rax,%rax
	CLD
 1001abf:	fc                   	cld    
	REP
 1001ac0:	f3 48 ab             	rep stos %rax,%es:(%rdi)
	STOSQ
	MOVQ	BX, CX
 1001ac3:	48 89 d9             	mov    %rbx,%rcx
	REP
 1001ac6:	f3 aa                	rep stos %al,%es:(%rdi)
	STOSB
	RET
 1001ac8:	c3                   	retq   

0000000001001ac9 <runtime.getcallerpc>:

TEXT runtime·getcallerpc(SB),7,$0
	MOVQ	x+0(FP),AX		// addr of first arg
 1001ac9:	48 8b 44 24 08       	mov    0x8(%rsp),%rax
	MOVQ	-8(AX),AX		// get calling pc
 1001ace:	48 8b 40 f8          	mov    -0x8(%rax),%rax
	RET
 1001ad2:	c3                   	retq   

0000000001001ad3 <runtime.getcallersp>:
	MOVQ	x+8(FP), BX
	MOVQ	BX, -8(AX)		// set calling pc
	RET

TEXT runtime·getcallersp(SB),7,$0
	MOVQ	sp+0(FP), AX
 1001ad3:	48 8b 44 24 08       	mov    0x8(%rsp),%rax
 1001ad8:	c3                   	retq   

0000000001001ad9 <runtime.atomicload>:

#pragma textflag 7
uint32
runtime·atomicload(uint32 volatile* addr)
{
	return *addr;
 1001ad9:	48 8b 44 24 08       	mov    0x8(%rsp),%rax
 1001ade:	8b 00                	mov    (%rax),%eax
 1001ae0:	c3                   	retq   

0000000001001ae1 <runtime.atomicloadp>:
 1001ae1:	48 8b 44 24 08       	mov    0x8(%rsp),%rax
 1001ae6:	48 8b 00             	mov    (%rax),%rax
 1001ae9:	c3                   	retq   

0000000001001aea <runtime.float64tobits>:
	u.f = f;
	return u.i;
}

uint64
runtime·float64tobits(float64 f)
 1001aea:	64 48 8b 0c 25 f0 ff 	mov    %fs:0xfffffffffffffff0,%rcx
 1001af1:	ff ff 
 1001af3:	48 3b 21             	cmp    (%rcx),%rsp
 1001af6:	77 05                	ja     1001afd <runtime.float64tobits+0x13>
 1001af8:	e8 4f fe ff ff       	callq  100194c <runtime.morestack8>
 1001afd:	48 83 ec 10          	sub    $0x10,%rsp
	// not valid, and gcc miscompiles it.  Use a union instead.
	union {
		float64 f;
		uint64 i;
	} u;
	u.f = f;
 1001b01:	f2 0f 10 44 24 18    	movsd  0x18(%rsp),%xmm0
 1001b07:	f2 0f 11 44 24 08    	movsd  %xmm0,0x8(%rsp)
	return u.i;
 1001b0d:	48 8b 44 24 08       	mov    0x8(%rsp),%rax
 1001b12:	48 83 c4 10          	add    $0x10,%rsp
 1001b16:	c3                   	retq   

0000000001001b17 <runtime.isInf>:
	u.i = i;
	return u.f;
}

bool
runtime·isInf(float64 f, int32 sign)
 1001b17:	64 48 8b 0c 25 f0 ff 	mov    %fs:0xfffffffffffffff0,%rcx
 1001b1e:	ff ff 
 1001b20:	48 3b 21             	cmp    (%rcx),%rsp
 1001b23:	77 05                	ja     1001b2a <runtime.isInf+0x13>
 1001b25:	e8 2b fe ff ff       	callq  1001955 <runtime.morestack16>
 1001b2a:	48 83 ec 20          	sub    $0x20,%rsp
{
	uint64 x;

	x = runtime·float64tobits(f);
 1001b2e:	f2 0f 10 44 24 28    	movsd  0x28(%rsp),%xmm0
 1001b34:	f2 0f 11 04 24       	movsd  %xmm0,(%rsp)
 1001b39:	e8 ac ff ff ff       	callq  1001aea <runtime.float64tobits>
 1001b3e:	8b 4c 24 30          	mov    0x30(%rsp),%ecx
 1001b42:	48 8b 2c 25 30 30 02 	mov    0x1023030,%rbp
 1001b49:	01 
 1001b4a:	48 8b 1c 25 38 30 02 	mov    0x1023038,%rbx
 1001b51:	01 
	if(sign == 0)
 1001b52:	83 f9 00             	cmp    $0x0,%ecx
 1001b55:	75 18                	jne    1001b6f <runtime.isInf+0x58>
		return x == uvinf || x == uvneginf;
 1001b57:	48 39 e8             	cmp    %rbp,%rax
 1001b5a:	74 0c                	je     1001b68 <runtime.isInf+0x51>
 1001b5c:	48 39 d8             	cmp    %rbx,%rax
 1001b5f:	74 07                	je     1001b68 <runtime.isInf+0x51>
 1001b61:	31 c0                	xor    %eax,%eax
 1001b63:	48 83 c4 20          	add    $0x20,%rsp
 1001b67:	c3                   	retq   
 1001b68:	b8 01 00 00 00       	mov    $0x1,%eax
 1001b6d:	eb f4                	jmp    1001b63 <runtime.isInf+0x4c>
	if(sign > 0)
 1001b6f:	83 f9 00             	cmp    $0x0,%ecx
 1001b72:	7e 13                	jle    1001b87 <runtime.isInf+0x70>
		return x == uvinf;
 1001b74:	48 39 e8             	cmp    %rbp,%rax
 1001b77:	75 0a                	jne    1001b83 <runtime.isInf+0x6c>
 1001b79:	b8 01 00 00 00       	mov    $0x1,%eax
 1001b7e:	48 83 c4 20          	add    $0x20,%rsp
 1001b82:	c3                   	retq   
 1001b83:	31 c0                	xor    %eax,%eax
 1001b85:	eb f7                	jmp    1001b7e <runtime.isInf+0x67>
	return x == uvneginf;
 1001b87:	48 39 d8             	cmp    %rbx,%rax
 1001b8a:	75 0a                	jne    1001b96 <runtime.isInf+0x7f>
 1001b8c:	b8 01 00 00 00       	mov    $0x1,%eax
 1001b91:	48 83 c4 20          	add    $0x20,%rsp
 1001b95:	c3                   	retq   
 1001b96:	31 c0                	xor    %eax,%eax
 1001b98:	eb f7                	jmp    1001b91 <runtime.isInf+0x7a>

0000000001001b9a <runtime.isNaN>:
{
	return runtime·float64frombits(uvnan);
}

bool
runtime·isNaN(float64 f)
 1001b9a:	64 48 8b 0c 25 f0 ff 	mov    %fs:0xfffffffffffffff0,%rcx
 1001ba1:	ff ff 
 1001ba3:	48 3b 21             	cmp    (%rcx),%rsp
 1001ba6:	77 05                	ja     1001bad <runtime.isNaN+0x13>
 1001ba8:	e8 9f fd ff ff       	callq  100194c <runtime.morestack8>
 1001bad:	48 83 ec 28          	sub    $0x28,%rsp
{
	uint64 x;

	x = runtime·float64tobits(f);
 1001bb1:	f2 0f 10 44 24 30    	movsd  0x30(%rsp),%xmm0
 1001bb7:	f2 0f 11 04 24       	movsd  %xmm0,(%rsp)
 1001bbc:	e8 29 ff ff ff       	callq  1001aea <runtime.float64tobits>
 1001bc1:	48 89 c1             	mov    %rax,%rcx
 1001bc4:	48 c1 e9 34          	shr    $0x34,%rcx
 1001bc8:	81 e1 ff 07 00 00    	and    $0x7ff,%ecx
 1001bce:	81 f9 ff 07 00 00    	cmp    $0x7ff,%ecx
 1001bd4:	75 1d                	jne    1001bf3 <runtime.isNaN+0x59>
 1001bd6:	f2 0f 10 44 24 30    	movsd  0x30(%rsp),%xmm0
 1001bdc:	f2 0f 11 04 24       	movsd  %xmm0,(%rsp)
 1001be1:	c7 44 24 08 00 00 00 	movl   $0x0,0x8(%rsp)
 1001be8:	00 
 1001be9:	e8 29 ff ff ff       	callq  1001b17 <runtime.isInf>
 1001bee:	80 f8 00             	cmp    $0x0,%al
 1001bf1:	74 07                	je     1001bfa <runtime.isNaN+0x60>
 1001bf3:	31 c0                	xor    %eax,%eax
 1001bf5:	48 83 c4 28          	add    $0x28,%rsp
 1001bf9:	c3                   	retq   
 1001bfa:	b8 01 00 00 00       	mov    $0x1,%eax
 1001bff:	eb f4                	jmp    1001bf5 <runtime.isNaN+0x5b>

0000000001001c01 <runtime.printiface>:
	// not a valid empty interface.
	reflectFlags = 3,
};

void
runtime·printiface(Iface i)
 1001c01:	64 48 8b 0c 25 f0 ff 	mov    %fs:0xfffffffffffffff0,%rcx
 1001c08:	ff ff 
 1001c0a:	48 3b 21             	cmp    (%rcx),%rsp
 1001c0d:	77 05                	ja     1001c14 <runtime.printiface+0x13>
 1001c0f:	e8 41 fd ff ff       	callq  1001955 <runtime.morestack16>
 1001c14:	48 83 ec 20          	sub    $0x20,%rsp
{
	runtime·printf("(%p,%p)", i.tab, i.data);
 1001c18:	b8 c8 38 02 01       	mov    $0x10238c8,%eax
 1001c1d:	48 89 04 24          	mov    %rax,(%rsp)
 1001c21:	48 8b 44 24 28       	mov    0x28(%rsp),%rax
 1001c26:	48 89 44 24 08       	mov    %rax,0x8(%rsp)
 1001c2b:	48 8b 44 24 30       	mov    0x30(%rsp),%rax
 1001c30:	48 89 44 24 10       	mov    %rax,0x10(%rsp)
 1001c35:	e8 04 57 00 00       	callq  100733e <runtime.printf>
 1001c3a:	48 83 c4 20          	add    $0x20,%rsp
 1001c3e:	c3                   	retq   

0000000001001c3f <runtime.printeface>:
}

void
runtime·printeface(Eface e)
 1001c3f:	64 48 8b 0c 25 f0 ff 	mov    %fs:0xfffffffffffffff0,%rcx
 1001c46:	ff ff 
 1001c48:	48 3b 21             	cmp    (%rcx),%rsp
 1001c4b:	77 05                	ja     1001c52 <runtime.printeface+0x13>
 1001c4d:	e8 03 fd ff ff       	callq  1001955 <runtime.morestack16>
 1001c52:	48 83 ec 20          	sub    $0x20,%rsp
{
	runtime·printf("(%p,%p)", e.type, e.data);
 1001c56:	b8 d0 38 02 01       	mov    $0x10238d0,%eax
 1001c5b:	48 89 04 24          	mov    %rax,(%rsp)
 1001c5f:	48 8b 44 24 28       	mov    0x28(%rsp),%rax
 1001c64:	48 89 44 24 08       	mov    %rax,0x8(%rsp)
 1001c69:	48 8b 44 24 30       	mov    0x30(%rsp),%rax
 1001c6e:	48 89 44 24 10       	mov    %rax,0x10(%rsp)
 1001c73:	e8 c6 56 00 00       	callq  100733e <runtime.printf>
 1001c78:	48 83 c4 20          	add    $0x20,%rsp
 1001c7c:	c3                   	retq   

0000000001001c7d <itab>:

static	Itab*	hash[1009];
static	Lock	ifacelock;

static Itab*
itab(InterfaceType *inter, Type *type, int32 canfail)
 1001c7d:	64 48 8b 0c 25 f0 ff 	mov    %fs:0xfffffffffffffff0,%rcx
 1001c84:	ff ff 
 1001c86:	48 8d 44 24 c8       	lea    -0x38(%rsp),%rax
 1001c8b:	48 3b 01             	cmp    (%rcx),%rax
 1001c8e:	77 05                	ja     1001c95 <itab+0x18>
 1001c90:	e8 c9 fc ff ff       	callq  100195e <runtime.morestack24>
 1001c95:	48 81 ec b8 00 00 00 	sub    $0xb8,%rsp
 1001c9c:	4c 8b a4 24 c8 00 00 	mov    0xc8(%rsp),%r12
 1001ca3:	00 
 1001ca4:	48 8b bc 24 c0 00 00 	mov    0xc0(%rsp),%rdi
 1001cab:	00 
	Itab *m;
	UncommonType *x;
	Type *itype;
	Eface err;

	if(inter->mhdr.len == 0)
 1001cac:	8b 47 40             	mov    0x40(%rdi),%eax
 1001caf:	83 f8 00             	cmp    $0x0,%eax
 1001cb2:	75 1e                	jne    1001cd2 <itab+0x55>
		runtime·throw("internal error - misuse of itab");
 1001cb4:	b8 d8 38 02 01       	mov    $0x10238d8,%eax
 1001cb9:	48 89 04 24          	mov    %rax,(%rsp)
 1001cbd:	e8 77 80 00 00       	callq  1009d39 <runtime.throw>
 1001cc2:	4c 8b a4 24 c8 00 00 	mov    0xc8(%rsp),%r12
 1001cc9:	00 
 1001cca:	48 8b bc 24 c0 00 00 	mov    0xc0(%rsp),%rdi
 1001cd1:	00 

	locked = 0;
 1001cd2:	c7 84 24 b4 00 00 00 	movl   $0x0,0xb4(%rsp)
 1001cd9:	00 00 00 00 

	// easy case
	x = type->x;
 1001cdd:	49 8b 44 24 28       	mov    0x28(%r12),%rax
	if(x == nil) {
 1001ce2:	48 83 f8 00          	cmp    $0x0,%rax
 1001ce6:	48 89 44 24 68       	mov    %rax,0x68(%rsp)
 1001ceb:	0f 85 96 00 00 00    	jne    1001d87 <itab+0x10a>
		if(canfail)
 1001cf1:	83 bc 24 d0 00 00 00 	cmpl   $0x0,0xd0(%rsp)
 1001cf8:	00 
 1001cf9:	74 0b                	je     1001d06 <itab+0x89>
			return nil;
 1001cfb:	48 31 c0             	xor    %rax,%rax
 1001cfe:	48 81 c4 b8 00 00 00 	add    $0xb8,%rsp
 1001d05:	c3                   	retq   
		iname = inter->m[0].name;
 1001d06:	48 8b 4f 48          	mov    0x48(%rdi),%rcx
		for(;; t++) {
			if(t >= et) {
				if(!canfail) {
				throw:
					// didn't find method
					runtime·newTypeAssertionError(nil, type, inter,
 1001d0a:	48 c7 04 24 00 00 00 	movq   $0x0,(%rsp)
 1001d11:	00 
 1001d12:	4c 89 64 24 08       	mov    %r12,0x8(%rsp)
 1001d17:	48 89 7c 24 10       	mov    %rdi,0x10(%rsp)
 1001d1c:	48 c7 44 24 18 00 00 	movq   $0x0,0x18(%rsp)
 1001d23:	00 00 
 1001d25:	49 8b 44 24 20       	mov    0x20(%r12),%rax
 1001d2a:	48 89 44 24 20       	mov    %rax,0x20(%rsp)
 1001d2f:	48 8b 47 20          	mov    0x20(%rdi),%rax
 1001d33:	48 89 44 24 28       	mov    %rax,0x28(%rsp)
 1001d38:	48 89 4c 24 30       	mov    %rcx,0x30(%rsp)
 1001d3d:	48 8d 44 24 50       	lea    0x50(%rsp),%rax
 1001d42:	48 89 44 24 38       	mov    %rax,0x38(%rsp)
 1001d47:	e8 90 f1 ff ff       	callq  1000edc <runtime.newTypeAssertionError>
						nil, type->string, inter->string,
						iname, &err);
					if(locked)
 1001d4c:	83 bc 24 b4 00 00 00 	cmpl   $0x0,0xb4(%rsp)
 1001d53:	00 
 1001d54:	74 0e                	je     1001d64 <itab+0xe7>
						runtime·unlock(&ifacelock);
 1001d56:	b8 90 4e 02 01       	mov    $0x1024e90,%eax
 1001d5b:	48 89 04 24          	mov    %rax,(%rsp)
 1001d5f:	e8 1e b1 00 00       	callq  100ce82 <runtime.unlock>
					runtime·panic(err);
 1001d64:	48 8b 44 24 50       	mov    0x50(%rsp),%rax
 1001d69:	48 89 04 24          	mov    %rax,(%rsp)
 1001d6d:	48 8b 44 24 58       	mov    0x58(%rsp),%rax
 1001d72:	48 89 44 24 08       	mov    %rax,0x8(%rsp)
 1001d77:	e8 20 79 00 00       	callq  100969c <runtime.panic>
					return nil;	// not reached
 1001d7c:	48 31 c0             	xor    %rax,%rax
 1001d7f:	48 81 c4 b8 00 00 00 	add    $0xb8,%rsp
 1001d86:	c3                   	retq   
		iname = inter->m[0].name;
		goto throw;
	}

	// compiler has provided some good hash codes for us.
	h = inter->hash;
 1001d87:	8b 57 18             	mov    0x18(%rdi),%edx
	h += 17 * type->hash;
 1001d8a:	41 8b 44 24 18       	mov    0x18(%r12),%eax
 1001d8f:	89 c1                	mov    %eax,%ecx
 1001d91:	c1 e1 04             	shl    $0x4,%ecx
 1001d94:	01 c1                	add    %eax,%ecx
 1001d96:	01 ca                	add    %ecx,%edx
	// TODO(rsc): h += 23 * x->mhash ?
	h %= nelem(hash);
 1001d98:	8b c2                	mov    %edx,%eax
 1001d9a:	31 d2                	xor    %edx,%edx
 1001d9c:	b9 f1 03 00 00       	mov    $0x3f1,%ecx
 1001da1:	f7 f1                	div    %ecx
 1001da3:	89 94 24 8c 00 00 00 	mov    %edx,0x8c(%rsp)

	// look twice - once without lock, once with.
	// common case will be no lock contention.
	for(locked=0; locked<2; locked++) {
 1001daa:	45 31 d2             	xor    %r10d,%r10d
 1001dad:	41 83 fa 02          	cmp    $0x2,%r10d
 1001db1:	44 89 94 24 b4 00 00 	mov    %r10d,0xb4(%rsp)
 1001db8:	00 
 1001db9:	7d 7d                	jge    1001e38 <itab+0x1bb>
		if(locked)
 1001dbb:	41 83 fa 00          	cmp    $0x0,%r10d
 1001dbf:	74 0e                	je     1001dcf <itab+0x152>
			runtime·lock(&ifacelock);
 1001dc1:	b8 90 4e 02 01       	mov    $0x1024e90,%eax
 1001dc6:	48 89 04 24          	mov    %rax,(%rsp)
 1001dca:	e8 61 b0 00 00       	callq  100ce30 <runtime.lock>
		for(m=runtime·atomicloadp(&hash[h]); m!=nil; m=m->link) {
 1001dcf:	8b 94 24 8c 00 00 00 	mov    0x8c(%rsp),%edx
 1001dd6:	48 8d 0c d5 78 83 02 	lea    0x1028378(,%rdx,8),%rcx
 1001ddd:	01 
 1001dde:	48 89 0c 24          	mov    %rcx,(%rsp)
 1001de2:	e8 fa fc ff ff       	callq  1001ae1 <runtime.atomicloadp>
 1001de7:	4c 8b a4 24 c8 00 00 	mov    0xc8(%rsp),%r12
 1001dee:	00 
 1001def:	44 8b 94 24 b4 00 00 	mov    0xb4(%rsp),%r10d
 1001df6:	00 
 1001df7:	48 8b bc 24 c0 00 00 	mov    0xc0(%rsp),%rdi
 1001dfe:	00 
 1001dff:	48 89 c3             	mov    %rax,%rbx
 1001e02:	48 83 fb 00          	cmp    $0x0,%rbx
 1001e06:	74 1f                	je     1001e27 <itab+0x1aa>
			if(m->inter == inter && m->type == type) {
 1001e08:	48 8b 03             	mov    (%rbx),%rax
 1001e0b:	48 39 f8             	cmp    %rdi,%rax
 1001e0e:	75 0d                	jne    1001e1d <itab+0x1a0>
 1001e10:	48 8b 43 08          	mov    0x8(%rbx),%rax
 1001e14:	4c 39 e0             	cmp    %r12,%rax
 1001e17:	0f 84 99 01 00 00    	je     1001fb6 <itab+0x339>
	// look twice - once without lock, once with.
	// common case will be no lock contention.
	for(locked=0; locked<2; locked++) {
		if(locked)
			runtime·lock(&ifacelock);
		for(m=runtime·atomicloadp(&hash[h]); m!=nil; m=m->link) {
 1001e1d:	48 8b 5b 10          	mov    0x10(%rbx),%rbx
 1001e21:	48 83 fb 00          	cmp    $0x0,%rbx
 1001e25:	75 e1                	jne    1001e08 <itab+0x18b>
	// TODO(rsc): h += 23 * x->mhash ?
	h %= nelem(hash);

	// look twice - once without lock, once with.
	// common case will be no lock contention.
	for(locked=0; locked<2; locked++) {
 1001e27:	41 ff c2             	inc    %r10d
 1001e2a:	41 83 fa 02          	cmp    $0x2,%r10d
 1001e2e:	44 89 94 24 b4 00 00 	mov    %r10d,0xb4(%rsp)
 1001e35:	00 
 1001e36:	7c 83                	jl     1001dbb <itab+0x13e>
				return m;
			}
		}
	}

	ni = inter->mhdr.len;
 1001e38:	8b 4f 40             	mov    0x40(%rdi),%ecx
	m = runtime·malloc(sizeof(*m) + ni*sizeof m->fun[0]);
 1001e3b:	c1 e1 03             	shl    $0x3,%ecx
 1001e3e:	83 c1 20             	add    $0x20,%ecx
 1001e41:	48 63 c9             	movslq %ecx,%rcx
 1001e44:	48 89 0c 24          	mov    %rcx,(%rsp)
 1001e48:	e8 3e 0c 00 00       	callq  1002a8b <runtime.malloc>
 1001e4d:	4c 8b a4 24 c8 00 00 	mov    0xc8(%rsp),%r12
 1001e54:	00 
 1001e55:	44 8b 94 24 b4 00 00 	mov    0xb4(%rsp),%r10d
 1001e5c:	00 
 1001e5d:	48 8b bc 24 c0 00 00 	mov    0xc0(%rsp),%rdi
 1001e64:	00 
 1001e65:	48 89 c3             	mov    %rax,%rbx
	m->inter = inter;
 1001e68:	48 89 38             	mov    %rdi,(%rax)
	m->type = type;
 1001e6b:	48 89 44 24 70       	mov    %rax,0x70(%rsp)
 1001e70:	4c 89 60 08          	mov    %r12,0x8(%rax)
search:
	// both inter and type have method sorted by name,
	// and interface names are unique,
	// so can iterate over both in lock step;
	// the loop is O(ni+nt) not O(ni*nt).
	i = inter->m;
 1001e74:	48 89 fe             	mov    %rdi,%rsi
 1001e77:	48 83 c6 48          	add    $0x48,%rsi
	ei = i + inter->mhdr.len;
 1001e7b:	8b 4f 40             	mov    0x40(%rdi),%ecx
 1001e7e:	48 6b c9 18          	imul   $0x18,%rcx,%rcx
 1001e82:	48 8d 04 0e          	lea    (%rsi,%rcx,1),%rax
 1001e86:	49 89 c3             	mov    %rax,%r11
	t = x->m;
 1001e89:	48 8b 6c 24 68       	mov    0x68(%rsp),%rbp
 1001e8e:	48 83 c5 20          	add    $0x20,%rbp
	et = t + x->mhdr.len;
 1001e92:	48 8b 4c 24 68       	mov    0x68(%rsp),%rcx
 1001e97:	8b 49 18             	mov    0x18(%rcx),%ecx
 1001e9a:	48 6b c9 30          	imul   $0x30,%rcx,%rcx
 1001e9e:	48 89 ea             	mov    %rbp,%rdx
 1001ea1:	48 8d 04 0a          	lea    (%rdx,%rcx,1),%rax
 1001ea5:	49 89 c1             	mov    %rax,%r9
	for(; i < ei; i++) {
 1001ea8:	4c 39 de             	cmp    %r11,%rsi
 1001eab:	73 29                	jae    1001ed6 <itab+0x259>
		itype = i->type;
 1001ead:	4c 8b 46 10          	mov    0x10(%rsi),%r8
		iname = i->name;
 1001eb1:	48 8b 0e             	mov    (%rsi),%rcx
		ipkgPath = i->pkgPath;
 1001eb4:	48 8b 56 08          	mov    0x8(%rsi),%rdx
		for(;; t++) {
			if(t >= et) {
 1001eb8:	4c 39 cd             	cmp    %r9,%rbp
 1001ebb:	0f 82 8f 00 00 00    	jb     1001f50 <itab+0x2d3>
				if(!canfail) {
 1001ec1:	83 bc 24 d0 00 00 00 	cmpl   $0x0,0xd0(%rsp)
 1001ec8:	00 
 1001ec9:	0f 84 3b fe ff ff    	je     1001d0a <itab+0x8d>
					if(locked)
						runtime·unlock(&ifacelock);
					runtime·panic(err);
					return nil;	// not reached
				}
				m->bad = 1;
 1001ecf:	c7 43 18 01 00 00 00 	movl   $0x1,0x18(%rbx)
		if(m)
			m->fun[i - inter->m] = t->ifn;
	}

out:
	if(!locked)
 1001ed6:	41 83 fa 00          	cmp    $0x0,%r10d
 1001eda:	75 13                	jne    1001eef <itab+0x272>
		runtime·panicstring("invalid itab locking");
 1001edc:	b8 f8 38 02 01       	mov    $0x10238f8,%eax
 1001ee1:	48 89 04 24          	mov    %rax,(%rsp)
 1001ee5:	e8 ac 7e 00 00       	callq  1009d96 <runtime.panicstring>
 1001eea:	48 8b 5c 24 70       	mov    0x70(%rsp),%rbx
	m->link = hash[h];
 1001eef:	8b 94 24 8c 00 00 00 	mov    0x8c(%rsp),%edx
 1001ef6:	48 8b 0c d5 78 83 02 	mov    0x1028378(,%rdx,8),%rcx
 1001efd:	01 
 1001efe:	48 89 4b 10          	mov    %rcx,0x10(%rbx)
	runtime·atomicstorep(&hash[h], m);
 1001f02:	8b 8c 24 8c 00 00 00 	mov    0x8c(%rsp),%ecx
 1001f09:	48 8d 04 cd 78 83 02 	lea    0x1028378(,%rcx,8),%rax
 1001f10:	01 
 1001f11:	48 89 04 24          	mov    %rax,(%rsp)
 1001f15:	48 89 5c 24 08       	mov    %rbx,0x8(%rsp)
 1001f1a:	e8 e1 fa ff ff       	callq  1001a00 <runtime.atomicstorep>
	runtime·unlock(&ifacelock);
 1001f1f:	b8 90 4e 02 01       	mov    $0x1024e90,%eax
 1001f24:	48 89 04 24          	mov    %rax,(%rsp)
 1001f28:	e8 55 af 00 00       	callq  100ce82 <runtime.unlock>
 1001f2d:	48 8b 4c 24 70       	mov    0x70(%rsp),%rcx
	if(m->bad)
 1001f32:	8b 41 18             	mov    0x18(%rcx),%eax
 1001f35:	83 f8 00             	cmp    $0x0,%eax
 1001f38:	74 0b                	je     1001f45 <itab+0x2c8>
		return nil;
 1001f3a:	48 31 c0             	xor    %rax,%rax
 1001f3d:	48 81 c4 b8 00 00 00 	add    $0xb8,%rsp
 1001f44:	c3                   	retq   
	return m;
 1001f45:	48 89 c8             	mov    %rcx,%rax
 1001f48:	48 81 c4 b8 00 00 00 	add    $0xb8,%rsp
 1001f4f:	c3                   	retq   
					return nil;	// not reached
				}
				m->bad = 1;
				goto out;
			}
			if(t->mtyp == itype && t->name == iname && t->pkgPath == ipkgPath)
 1001f50:	48 8b 45 10          	mov    0x10(%rbp),%rax
 1001f54:	4c 39 c0             	cmp    %r8,%rax
 1001f57:	75 09                	jne    1001f62 <itab+0x2e5>
 1001f59:	48 8b 45 00          	mov    0x0(%rbp),%rax
 1001f5d:	48 39 c8             	cmp    %rcx,%rax
 1001f60:	74 09                	je     1001f6b <itab+0x2ee>
	et = t + x->mhdr.len;
	for(; i < ei; i++) {
		itype = i->type;
		iname = i->name;
		ipkgPath = i->pkgPath;
		for(;; t++) {
 1001f62:	48 83 c5 30          	add    $0x30,%rbp
			if(t >= et) {
 1001f66:	e9 4d ff ff ff       	jmpq   1001eb8 <itab+0x23b>
					return nil;	// not reached
				}
				m->bad = 1;
				goto out;
			}
			if(t->mtyp == itype && t->name == iname && t->pkgPath == ipkgPath)
 1001f6b:	48 8b 45 08          	mov    0x8(%rbp),%rax
 1001f6f:	48 39 d0             	cmp    %rdx,%rax
 1001f72:	75 ee                	jne    1001f62 <itab+0x2e5>
				break;
		}
		if(m)
 1001f74:	48 83 fb 00          	cmp    $0x0,%rbx
 1001f78:	74 33                	je     1001fad <itab+0x330>
			m->fun[i - inter->m] = t->ifn;
 1001f7a:	48 89 44 24 40       	mov    %rax,0x40(%rsp)
 1001f7f:	48 89 f0             	mov    %rsi,%rax
 1001f82:	48 29 f8             	sub    %rdi,%rax
 1001f85:	48 83 c0 b8          	add    $0xffffffffffffffb8,%rax
 1001f89:	48 99                	cqto   
 1001f8b:	48 c7 44 24 38 18 00 	movq   $0x18,0x38(%rsp)
 1001f92:	00 00 
 1001f94:	48 f7 7c 24 38       	idivq  0x38(%rsp)
 1001f99:	48 89 c1             	mov    %rax,%rcx
 1001f9c:	48 8b 44 24 40       	mov    0x40(%rsp),%rax
 1001fa1:	48 8d 04 cb          	lea    (%rbx,%rcx,8),%rax
 1001fa5:	48 8b 4d 20          	mov    0x20(%rbp),%rcx
 1001fa9:	48 89 48 20          	mov    %rcx,0x20(%rax)
	// the loop is O(ni+nt) not O(ni*nt).
	i = inter->m;
	ei = i + inter->mhdr.len;
	t = x->m;
	et = t + x->mhdr.len;
	for(; i < ei; i++) {
 1001fad:	48 83 c6 18          	add    $0x18,%rsi
 1001fb1:	e9 f2 fe ff ff       	jmpq   1001ea8 <itab+0x22b>
	for(locked=0; locked<2; locked++) {
		if(locked)
			runtime·lock(&ifacelock);
		for(m=runtime·atomicloadp(&hash[h]); m!=nil; m=m->link) {
			if(m->inter == inter && m->type == type) {
				if(m->bad) {
 1001fb6:	48 89 5c 24 70       	mov    %rbx,0x70(%rsp)
 1001fbb:	8b 43 18             	mov    0x18(%rbx),%eax
 1001fbe:	83 f8 00             	cmp    $0x0,%eax
 1001fc1:	74 16                	je     1001fd9 <itab+0x35c>
					m = nil;
 1001fc3:	48 31 db             	xor    %rbx,%rbx
 1001fc6:	48 89 5c 24 70       	mov    %rbx,0x70(%rsp)
					if(!canfail) {
 1001fcb:	83 bc 24 d0 00 00 00 	cmpl   $0x0,0xd0(%rsp)
 1001fd2:	00 
 1001fd3:	0f 84 9b fe ff ff    	je     1001e74 <itab+0x1f7>
						// down to the interface check, which will
						// do more work but give a better error.
						goto search;
					}
				}
				if(locked)
 1001fd9:	41 83 fa 00          	cmp    $0x0,%r10d
 1001fdd:	74 13                	je     1001ff2 <itab+0x375>
					runtime·unlock(&ifacelock);
 1001fdf:	b8 90 4e 02 01       	mov    $0x1024e90,%eax
 1001fe4:	48 89 04 24          	mov    %rax,(%rsp)
 1001fe8:	e8 95 ae 00 00       	callq  100ce82 <runtime.unlock>
 1001fed:	48 8b 5c 24 70       	mov    0x70(%rsp),%rbx
				return m;
 1001ff2:	48 89 d8             	mov    %rbx,%rax
 1001ff5:	48 81 c4 b8 00 00 00 	add    $0xb8,%rsp
 1001ffc:	c3                   	retq   

0000000001001ffd <copyin>:
		return nil;
	return m;
}

static void
copyin(Type *t, void *src, void **dst)
 1001ffd:	64 48 8b 0c 25 f0 ff 	mov    %fs:0xfffffffffffffff0,%rcx
 1002004:	ff ff 
 1002006:	48 3b 21             	cmp    (%rcx),%rsp
 1002009:	77 05                	ja     1002010 <copyin+0x13>
 100200b:	e8 4e f9 ff ff       	callq  100195e <runtime.morestack24>
 1002010:	48 83 ec 38          	sub    $0x38,%rsp
 1002014:	48 8b 4c 24 40       	mov    0x40(%rsp),%rcx
{
	int32 wid, alg;
	void *p;

	wid = t->size;
 1002019:	48 8b 51 10          	mov    0x10(%rcx),%rdx
 100201d:	48 63 d2             	movslq %edx,%rdx
	alg = t->alg;
 1002020:	0f b6 41 1c          	movzbl 0x1c(%rcx),%eax
 1002024:	89 c3                	mov    %eax,%ebx
 1002026:	89 44 24 30          	mov    %eax,0x30(%rsp)

	if(wid <= sizeof(*dst))
 100202a:	83 fa 08             	cmp    $0x8,%edx
 100202d:	7f 2d                	jg     100205c <copyin+0x5f>
		runtime·algarray[alg].copy(wid, dst, src);
 100202f:	89 14 24             	mov    %edx,(%rsp)
 1002032:	48 8b 44 24 50       	mov    0x50(%rsp),%rax
 1002037:	48 89 44 24 08       	mov    %rax,0x8(%rsp)
 100203c:	48 8b 44 24 48       	mov    0x48(%rsp),%rax
 1002041:	48 89 44 24 10       	mov    %rax,0x10(%rsp)
 1002046:	48 63 cb             	movslq %ebx,%rcx
 1002049:	48 c1 e1 05          	shl    $0x5,%rcx
 100204d:	48 8b 04 0d c8 3a 02 	mov    0x1023ac8(,%rcx,1),%rax
 1002054:	01 
 1002055:	ff d0                	callq  *%rax
	else {
		p = runtime·mal(wid);
		runtime·algarray[alg].copy(wid, p, src);
		*dst = p;
 1002057:	48 83 c4 38          	add    $0x38,%rsp
 100205b:	c3                   	retq   
	alg = t->alg;

	if(wid <= sizeof(*dst))
		runtime·algarray[alg].copy(wid, dst, src);
	else {
		p = runtime·mal(wid);
 100205c:	89 54 24 34          	mov    %edx,0x34(%rsp)
 1002060:	48 63 ca             	movslq %edx,%rcx
 1002063:	48 89 0c 24          	mov    %rcx,(%rsp)
 1002067:	e8 c4 10 00 00       	callq  1003130 <runtime.mal>
 100206c:	48 89 c1             	mov    %rax,%rcx
		runtime·algarray[alg].copy(wid, p, src);
 100206f:	8b 44 24 34          	mov    0x34(%rsp),%eax
 1002073:	89 04 24             	mov    %eax,(%rsp)
 1002076:	48 89 4c 24 28       	mov    %rcx,0x28(%rsp)
 100207b:	48 89 4c 24 08       	mov    %rcx,0x8(%rsp)
 1002080:	48 8b 44 24 48       	mov    0x48(%rsp),%rax
 1002085:	48 89 44 24 10       	mov    %rax,0x10(%rsp)
 100208a:	8b 4c 24 30          	mov    0x30(%rsp),%ecx
 100208e:	48 63 c9             	movslq %ecx,%rcx
 1002091:	48 c1 e1 05          	shl    $0x5,%rcx
 1002095:	48 8b 04 0d c8 3a 02 	mov    0x1023ac8(,%rcx,1),%rax
 100209c:	01 
 100209d:	ff d0                	callq  *%rax
		*dst = p;
 100209f:	48 8b 44 24 50       	mov    0x50(%rsp),%rax
 10020a4:	48 8b 4c 24 28       	mov    0x28(%rsp),%rcx
 10020a9:	48 89 08             	mov    %rcx,(%rax)
 10020ac:	eb a9                	jmp    1002057 <copyin+0x5a>

00000000010020ae <copyout>:
	}
}

static void
copyout(Type *t, void **src, void *dst)
 10020ae:	64 48 8b 0c 25 f0 ff 	mov    %fs:0xfffffffffffffff0,%rcx
 10020b5:	ff ff 
 10020b7:	48 3b 21             	cmp    (%rcx),%rsp
 10020ba:	77 05                	ja     10020c1 <copyout+0x13>
 10020bc:	e8 9d f8 ff ff       	callq  100195e <runtime.morestack24>
 10020c1:	48 83 ec 30          	sub    $0x30,%rsp
 10020c5:	48 8b 54 24 38       	mov    0x38(%rsp),%rdx
 10020ca:	48 8b 6c 24 48       	mov    0x48(%rsp),%rbp
 10020cf:	48 8b 5c 24 40       	mov    0x40(%rsp),%rbx
{
	int32 wid, alg;

	wid = t->size;
 10020d4:	48 8b 4a 10          	mov    0x10(%rdx),%rcx
 10020d8:	48 63 c9             	movslq %ecx,%rcx
	alg = t->alg;
 10020db:	0f b6 42 1c          	movzbl 0x1c(%rdx),%eax
 10020df:	89 c2                	mov    %eax,%edx

	if(wid <= sizeof(*src))
 10020e1:	83 f9 08             	cmp    $0x8,%ecx
 10020e4:	7f 23                	jg     1002109 <copyout+0x5b>
		runtime·algarray[alg].copy(wid, dst, src);
 10020e6:	89 0c 24             	mov    %ecx,(%rsp)
 10020e9:	48 89 6c 24 08       	mov    %rbp,0x8(%rsp)
 10020ee:	48 89 5c 24 10       	mov    %rbx,0x10(%rsp)
 10020f3:	48 63 ca             	movslq %edx,%rcx
 10020f6:	48 c1 e1 05          	shl    $0x5,%rcx
 10020fa:	48 8b 04 0d c8 3a 02 	mov    0x1023ac8(,%rcx,1),%rax
 1002101:	01 
 1002102:	ff d0                	callq  *%rax
	else
		runtime·algarray[alg].copy(wid, dst, *src);
 1002104:	48 83 c4 30          	add    $0x30,%rsp
 1002108:	c3                   	retq   
 1002109:	89 0c 24             	mov    %ecx,(%rsp)
 100210c:	48 89 6c 24 08       	mov    %rbp,0x8(%rsp)
 1002111:	48 8b 03             	mov    (%rbx),%rax
 1002114:	48 89 44 24 10       	mov    %rax,0x10(%rsp)
 1002119:	48 63 ca             	movslq %edx,%rcx
 100211c:	48 c1 e1 05          	shl    $0x5,%rcx
 1002120:	48 8b 04 0d c8 3a 02 	mov    0x1023ac8(,%rcx,1),%rax
 1002127:	01 
 1002128:	ff d0                	callq  *%rax
 100212a:	eb d8                	jmp    1002104 <copyout+0x56>

000000000100212c <runtime.convT2E>:
}

// func convT2E(typ *byte, elem any) (ret any)
#pragma textflag 7
void
runtime·convT2E(Type *t, ...)
 100212c:	48 83 ec 40          	sub    $0x40,%rsp
{
	byte *elem;
	Eface *ret;
	int32 wid;

	elem = (byte*)(&t+1);
 1002130:	48 8d 44 24 50       	lea    0x50(%rsp),%rax
 1002135:	48 89 44 24 38       	mov    %rax,0x38(%rsp)
	wid = t->size;
 100213a:	48 8b 44 24 48       	mov    0x48(%rsp),%rax
 100213f:	48 8b 40 10          	mov    0x10(%rax),%rax
 1002143:	48 63 c0             	movslq %eax,%rax
	ret = (Eface*)(elem + runtime·rnd(wid, Structrnd));
 1002146:	89 04 24             	mov    %eax,(%rsp)
 1002149:	b9 08 00 00 00       	mov    $0x8,%ecx
 100214e:	89 4c 24 04          	mov    %ecx,0x4(%rsp)
 1002152:	e8 92 7d 00 00       	callq  1009ee9 <runtime.rnd>
 1002157:	48 8b 6c 24 38       	mov    0x38(%rsp),%rbp
 100215c:	48 8b 5c 24 48       	mov    0x48(%rsp),%rbx
 1002161:	48 01 e8             	add    %rbp,%rax
	ret->type = t;
 1002164:	48 89 18             	mov    %rbx,(%rax)
	copyin(t, elem, &ret->data);
 1002167:	48 89 1c 24          	mov    %rbx,(%rsp)
 100216b:	48 89 6c 24 08       	mov    %rbp,0x8(%rsp)
 1002170:	48 83 c0 08          	add    $0x8,%rax
 1002174:	48 89 44 24 10       	mov    %rax,0x10(%rsp)
 1002179:	e8 7f fe ff ff       	callq  1001ffd <copyin>
 100217e:	48 83 c4 40          	add    $0x40,%rsp
 1002182:	c3                   	retq   

0000000001002183 <runtime.assertE2T2>:
}

// func ifaceE2T2(sigt *byte, iface any) (ret any, ok bool);
#pragma textflag 7
void
runtime·assertE2T2(Type *t, Eface e, ...)
 1002183:	48 83 ec 40          	sub    $0x40,%rsp
 1002187:	48 8b 74 24 48       	mov    0x48(%rsp),%rsi
{
	byte *ret;
	bool *ok;
	int32 wid;

	if(((uintptr)e.type&reflectFlags) != 0)
 100218c:	48 8b 44 24 50       	mov    0x50(%rsp),%rax
 1002191:	48 83 e0 03          	and    $0x3,%rax
 1002195:	48 83 f8 00          	cmp    $0x0,%rax
 1002199:	74 13                	je     10021ae <runtime.assertE2T2+0x2b>
		runtime·throw("invalid interface value");
 100219b:	b8 3d 39 02 01       	mov    $0x102393d,%eax
 10021a0:	48 89 04 24          	mov    %rax,(%rsp)
 10021a4:	e8 90 7b 00 00       	callq  1009d39 <runtime.throw>
 10021a9:	48 8b 74 24 48       	mov    0x48(%rsp),%rsi
	ret = (byte*)(&e+1);
 10021ae:	48 8d 44 24 60       	lea    0x60(%rsp),%rax
 10021b3:	48 89 c3             	mov    %rax,%rbx
	wid = t->size;
 10021b6:	48 8b 6e 10          	mov    0x10(%rsi),%rbp
 10021ba:	48 63 ed             	movslq %ebp,%rbp
	ok = (bool*)(ret + wid);
 10021bd:	48 8d 04 28          	lea    (%rax,%rbp,1),%rax

	if(t != e.type) {
 10021c1:	48 3b 74 24 50       	cmp    0x50(%rsp),%rsi
 10021c6:	74 19                	je     10021e1 <runtime.assertE2T2+0x5e>
		*ok = false;
 10021c8:	c6 00 00             	movb   $0x0,(%rax)
		runtime·memclr(ret, wid);
 10021cb:	48 89 1c 24          	mov    %rbx,(%rsp)
 10021cf:	48 63 c5             	movslq %ebp,%rax
 10021d2:	48 89 44 24 08       	mov    %rax,0x8(%rsp)
 10021d7:	e8 cb f8 ff ff       	callq  1001aa7 <runtime.memclr>
		return;
 10021dc:	48 83 c4 40          	add    $0x40,%rsp
 10021e0:	c3                   	retq   
	}

	*ok = true;
 10021e1:	c6 00 01             	movb   $0x1,(%rax)
	copyout(t, &e.data, ret);
 10021e4:	48 89 34 24          	mov    %rsi,(%rsp)
 10021e8:	48 8d 44 24 58       	lea    0x58(%rsp),%rax
 10021ed:	48 89 44 24 08       	mov    %rax,0x8(%rsp)
 10021f2:	48 89 5c 24 10       	mov    %rbx,0x10(%rsp)
 10021f7:	e8 b2 fe ff ff       	callq  10020ae <copyout>
 10021fc:	48 83 c4 40          	add    $0x40,%rsp
 1002200:	c3                   	retq   

0000000001002201 <runtime.assertE2I2>:
	runtime·ifaceE2I(inter, e, &ret);
}

// ifaceE2I2(sigi *byte, iface any) (ret any, ok bool)
void
runtime·assertE2I2(InterfaceType *inter, Eface e, Iface ret, bool ok)
 1002201:	64 48 8b 0c 25 f0 ff 	mov    %fs:0xfffffffffffffff0,%rcx
 1002208:	ff ff 
 100220a:	48 3b 21             	cmp    (%rcx),%rsp
 100220d:	77 05                	ja     1002214 <runtime.assertE2I2+0x13>
 100220f:	e8 65 f7 ff ff       	callq  1001979 <runtime.morestack48>
 1002214:	48 83 ec 20          	sub    $0x20,%rsp
{
	if(((uintptr)e.type&reflectFlags) != 0)
 1002218:	48 8b 44 24 30       	mov    0x30(%rsp),%rax
 100221d:	48 83 e0 03          	and    $0x3,%rax
 1002221:	48 83 f8 00          	cmp    $0x0,%rax
 1002225:	74 0e                	je     1002235 <runtime.assertE2I2+0x34>
		runtime·throw("invalid interface value");
 1002227:	b8 6d 39 02 01       	mov    $0x102396d,%eax
 100222c:	48 89 04 24          	mov    %rax,(%rsp)
 1002230:	e8 04 7b 00 00       	callq  1009d39 <runtime.throw>
	if(e.type == nil) {
 1002235:	48 83 7c 24 30 00    	cmpq   $0x0,0x30(%rsp)
 100223b:	75 1c                	jne    1002259 <runtime.assertE2I2+0x58>
		ok = 0;
 100223d:	c6 44 24 50 00       	movb   $0x0,0x50(%rsp)
		ret.data = nil;
 1002242:	48 c7 44 24 48 00 00 	movq   $0x0,0x48(%rsp)
 1002249:	00 00 
		ret.tab = nil;
 100224b:	48 c7 44 24 40 00 00 	movq   $0x0,0x40(%rsp)
 1002252:	00 00 
	} else {
		ok = 1;
		ret.data = e.data;
	}
	FLUSH(&ret);
	FLUSH(&ok);
 1002254:	48 83 c4 20          	add    $0x20,%rsp
 1002258:	c3                   	retq   
		runtime·throw("invalid interface value");
	if(e.type == nil) {
		ok = 0;
		ret.data = nil;
		ret.tab = nil;
	} else if((ret.tab = itab(inter, e.type, 1)) == nil) {
 1002259:	48 8b 4c 24 28       	mov    0x28(%rsp),%rcx
 100225e:	48 89 0c 24          	mov    %rcx,(%rsp)
 1002262:	48 8b 4c 24 30       	mov    0x30(%rsp),%rcx
 1002267:	48 89 4c 24 08       	mov    %rcx,0x8(%rsp)
 100226c:	b9 01 00 00 00       	mov    $0x1,%ecx
 1002271:	89 4c 24 10          	mov    %ecx,0x10(%rsp)
 1002275:	e8 03 fa ff ff       	callq  1001c7d <itab>
 100227a:	48 89 44 24 40       	mov    %rax,0x40(%rsp)
 100227f:	48 83 f8 00          	cmp    $0x0,%rax
 1002283:	75 10                	jne    1002295 <runtime.assertE2I2+0x94>
		ok = 0;
 1002285:	c6 44 24 50 00       	movb   $0x0,0x50(%rsp)
		ret.data = nil;
 100228a:	48 c7 44 24 48 00 00 	movq   $0x0,0x48(%rsp)
 1002291:	00 00 
	} else {
		ok = 1;
		ret.data = e.data;
	}
	FLUSH(&ret);
	FLUSH(&ok);
 1002293:	eb bf                	jmp    1002254 <runtime.assertE2I2+0x53>
		ret.tab = nil;
	} else if((ret.tab = itab(inter, e.type, 1)) == nil) {
		ok = 0;
		ret.data = nil;
	} else {
		ok = 1;
 1002295:	c6 44 24 50 01       	movb   $0x1,0x50(%rsp)
		ret.data = e.data;
 100229a:	48 8b 44 24 38       	mov    0x38(%rsp),%rax
 100229f:	48 89 44 24 48       	mov    %rax,0x48(%rsp)
	}
	FLUSH(&ret);
	FLUSH(&ok);
 10022a4:	eb ae                	jmp    1002254 <runtime.assertE2I2+0x53>

00000000010022a6 <ifacehash1>:
	FLUSH(&ret);
	FLUSH(&ok);
}

static uintptr
ifacehash1(void *data, Type *t)
 10022a6:	64 48 8b 0c 25 f0 ff 	mov    %fs:0xfffffffffffffff0,%rcx
 10022ad:	ff ff 
 10022af:	48 3b 21             	cmp    (%rcx),%rsp
 10022b2:	77 05                	ja     10022b9 <ifacehash1+0x13>
 10022b4:	e8 9c f6 ff ff       	callq  1001955 <runtime.morestack16>
 10022b9:	48 83 ec 70          	sub    $0x70,%rsp
 10022bd:	48 8b 8c 24 80 00 00 	mov    0x80(%rsp),%rcx
 10022c4:	00 
{
	int32 alg, wid;
	Eface err;

	if(t == nil)
 10022c5:	48 83 f9 00          	cmp    $0x0,%rcx
 10022c9:	75 08                	jne    10022d3 <ifacehash1+0x2d>
		return 0;
 10022cb:	48 31 c0             	xor    %rax,%rax
 10022ce:	48 83 c4 70          	add    $0x70,%rsp
 10022d2:	c3                   	retq   

	alg = t->alg;
 10022d3:	0f b6 41 1c          	movzbl 0x1c(%rcx),%eax
 10022d7:	89 c3                	mov    %eax,%ebx
	wid = t->size;
 10022d9:	48 8b 51 10          	mov    0x10(%rcx),%rdx
 10022dd:	48 63 d2             	movslq %edx,%rdx
 10022e0:	89 54 24 68          	mov    %edx,0x68(%rsp)
	if(runtime·algarray[alg].hash == runtime·nohash) {
 10022e4:	89 44 24 6c          	mov    %eax,0x6c(%rsp)
 10022e8:	48 63 c8             	movslq %eax,%rcx
 10022eb:	48 c1 e1 05          	shl    $0x5,%rcx
 10022ef:	48 8b 04 0d b0 3a 02 	mov    0x1023ab0(,%rcx,1),%rax
 10022f6:	01 
 10022f7:	48 3d 7a a9 00 01    	cmp    $0x100a97a,%rax
 10022fd:	0f 85 99 00 00 00    	jne    100239c <ifacehash1+0xf6>
		// calling nohash will panic too,
		// but we can print a better error.
		runtime·newErrorString(runtime·catstring(runtime·gostringnocopy((byte*)"hash of unhashable type "), *t->string), &err);
 1002303:	48 8d 44 24 30       	lea    0x30(%rsp),%rax
 1002308:	48 89 04 24          	mov    %rax,(%rsp)
 100230c:	b8 b5 39 02 01       	mov    $0x10239b5,%eax
 1002311:	48 89 44 24 08       	mov    %rax,0x8(%rsp)
 1002316:	e8 10 95 00 00       	callq  100b82b <runtime.gostringnocopy>
 100231b:	48 8d 44 24 40       	lea    0x40(%rsp),%rax
 1002320:	48 89 04 24          	mov    %rax,(%rsp)
 1002324:	48 8b 44 24 30       	mov    0x30(%rsp),%rax
 1002329:	48 89 44 24 08       	mov    %rax,0x8(%rsp)
 100232e:	48 8b 44 24 38       	mov    0x38(%rsp),%rax
 1002333:	48 89 44 24 10       	mov    %rax,0x10(%rsp)
 1002338:	48 8b 8c 24 80 00 00 	mov    0x80(%rsp),%rcx
 100233f:	00 
 1002340:	48 8b 49 20          	mov    0x20(%rcx),%rcx
 1002344:	48 8b 01             	mov    (%rcx),%rax
 1002347:	48 89 44 24 18       	mov    %rax,0x18(%rsp)
 100234c:	48 8b 41 08          	mov    0x8(%rcx),%rax
 1002350:	48 89 44 24 20       	mov    %rax,0x20(%rsp)
 1002355:	e8 1a 95 00 00       	callq  100b874 <runtime.catstring>
 100235a:	48 8b 44 24 40       	mov    0x40(%rsp),%rax
 100235f:	48 89 04 24          	mov    %rax,(%rsp)
 1002363:	48 8b 44 24 48       	mov    0x48(%rsp),%rax
 1002368:	48 89 44 24 08       	mov    %rax,0x8(%rsp)
 100236d:	48 8d 44 24 58       	lea    0x58(%rsp),%rax
 1002372:	48 89 44 24 10       	mov    %rax,0x10(%rsp)
 1002377:	e8 37 ee ff ff       	callq  10011b3 <runtime.newErrorString>
		runtime·panic(err);
 100237c:	48 8b 44 24 58       	mov    0x58(%rsp),%rax
 1002381:	48 89 04 24          	mov    %rax,(%rsp)
 1002385:	48 8b 44 24 60       	mov    0x60(%rsp),%rax
 100238a:	48 89 44 24 08       	mov    %rax,0x8(%rsp)
 100238f:	e8 08 73 00 00       	callq  100969c <runtime.panic>
 1002394:	8b 5c 24 6c          	mov    0x6c(%rsp),%ebx
 1002398:	8b 54 24 68          	mov    0x68(%rsp),%edx
	}
	if(wid <= sizeof(data))
 100239c:	83 fa 08             	cmp    $0x8,%edx
 100239f:	7f 23                	jg     10023c4 <ifacehash1+0x11e>
		return runtime·algarray[alg].hash(wid, &data);
 10023a1:	89 14 24             	mov    %edx,(%rsp)
 10023a4:	48 8d 4c 24 78       	lea    0x78(%rsp),%rcx
 10023a9:	48 89 4c 24 08       	mov    %rcx,0x8(%rsp)
 10023ae:	48 63 cb             	movslq %ebx,%rcx
 10023b1:	48 c1 e1 05          	shl    $0x5,%rcx
 10023b5:	48 8b 04 0d b0 3a 02 	mov    0x1023ab0(,%rcx,1),%rax
 10023bc:	01 
 10023bd:	ff d0                	callq  *%rax
 10023bf:	48 83 c4 70          	add    $0x70,%rsp
 10023c3:	c3                   	retq   
	return runtime·algarray[alg].hash(wid, data);
 10023c4:	89 14 24             	mov    %edx,(%rsp)
 10023c7:	48 8b 4c 24 78       	mov    0x78(%rsp),%rcx
 10023cc:	48 89 4c 24 08       	mov    %rcx,0x8(%rsp)
 10023d1:	48 63 cb             	movslq %ebx,%rcx
 10023d4:	48 c1 e1 05          	shl    $0x5,%rcx
 10023d8:	48 8b 04 0d b0 3a 02 	mov    0x1023ab0(,%rcx,1),%rax
 10023df:	01 
 10023e0:	ff d0                	callq  *%rax
 10023e2:	48 83 c4 70          	add    $0x70,%rsp
 10023e6:	c3                   	retq   

00000000010023e7 <runtime.ifacehash>:
}

uintptr
runtime·ifacehash(Iface a)
 10023e7:	64 48 8b 0c 25 f0 ff 	mov    %fs:0xfffffffffffffff0,%rcx
 10023ee:	ff ff 
 10023f0:	48 3b 21             	cmp    (%rcx),%rsp
 10023f3:	77 05                	ja     10023fa <runtime.ifacehash+0x13>
 10023f5:	e8 5b f5 ff ff       	callq  1001955 <runtime.morestack16>
 10023fa:	48 83 ec 18          	sub    $0x18,%rsp
{
	if(a.tab == nil)
 10023fe:	48 83 7c 24 20 00    	cmpq   $0x0,0x20(%rsp)
 1002404:	75 08                	jne    100240e <runtime.ifacehash+0x27>
		return 0;
 1002406:	48 31 c0             	xor    %rax,%rax
 1002409:	48 83 c4 18          	add    $0x18,%rsp
 100240d:	c3                   	retq   
	return ifacehash1(a.data, a.tab->type);
 100240e:	48 8b 4c 24 28       	mov    0x28(%rsp),%rcx
 1002413:	48 89 0c 24          	mov    %rcx,(%rsp)
 1002417:	48 8b 4c 24 20       	mov    0x20(%rsp),%rcx
 100241c:	48 8b 49 08          	mov    0x8(%rcx),%rcx
 1002420:	48 89 4c 24 08       	mov    %rcx,0x8(%rsp)
 1002425:	e8 7c fe ff ff       	callq  10022a6 <ifacehash1>
 100242a:	48 83 c4 18          	add    $0x18,%rsp
 100242e:	c3                   	retq   

000000000100242f <runtime.efacehash>:
}

uintptr
runtime·efacehash(Eface a)
 100242f:	64 48 8b 0c 25 f0 ff 	mov    %fs:0xfffffffffffffff0,%rcx
 1002436:	ff ff 
 1002438:	48 3b 21             	cmp    (%rcx),%rsp
 100243b:	77 05                	ja     1002442 <runtime.efacehash+0x13>
 100243d:	e8 13 f5 ff ff       	callq  1001955 <runtime.morestack16>
 1002442:	48 83 ec 18          	sub    $0x18,%rsp
{
	return ifacehash1(a.data, a.type);
 1002446:	48 8b 4c 24 28       	mov    0x28(%rsp),%rcx
 100244b:	48 89 0c 24          	mov    %rcx,(%rsp)
 100244f:	48 8b 4c 24 20       	mov    0x20(%rsp),%rcx
 1002454:	48 89 4c 24 08       	mov    %rcx,0x8(%rsp)
 1002459:	e8 48 fe ff ff       	callq  10022a6 <ifacehash1>
 100245e:	48 83 c4 18          	add    $0x18,%rsp
 1002462:	c3                   	retq   

0000000001002463 <ifaceeq1>:
}

static bool
ifaceeq1(void *data1, void *data2, Type *t)
 1002463:	64 48 8b 0c 25 f0 ff 	mov    %fs:0xfffffffffffffff0,%rcx
 100246a:	ff ff 
 100246c:	48 3b 21             	cmp    (%rcx),%rsp
 100246f:	77 05                	ja     1002476 <ifaceeq1+0x13>
 1002471:	e8 e8 f4 ff ff       	callq  100195e <runtime.morestack24>
 1002476:	48 83 ec 70          	sub    $0x70,%rsp
 100247a:	48 8b 8c 24 88 00 00 	mov    0x88(%rsp),%rcx
 1002481:	00 
{
	int32 alg, wid;
	Eface err;

	alg = t->alg;
 1002482:	0f b6 41 1c          	movzbl 0x1c(%rcx),%eax
 1002486:	89 c3                	mov    %eax,%ebx
	wid = t->size;
 1002488:	48 8b 51 10          	mov    0x10(%rcx),%rdx
 100248c:	48 63 d2             	movslq %edx,%rdx
 100248f:	89 54 24 68          	mov    %edx,0x68(%rsp)

	if(runtime·algarray[alg].equal == runtime·noequal) {
 1002493:	89 44 24 6c          	mov    %eax,0x6c(%rsp)
 1002497:	48 63 c8             	movslq %eax,%rcx
 100249a:	48 c1 e1 05          	shl    $0x5,%rcx
 100249e:	48 8b 04 0d b8 3a 02 	mov    0x1023ab8(,%rcx,1),%rax
 10024a5:	01 
 10024a6:	48 3d a7 a9 00 01    	cmp    $0x100a9a7,%rax
 10024ac:	0f 85 99 00 00 00    	jne    100254b <ifaceeq1+0xe8>
		// calling noequal will panic too,
		// but we can print a better error.
		runtime·newErrorString(runtime·catstring(runtime·gostringnocopy((byte*)"comparing uncomparable type "), *t->string), &err);
 10024b2:	48 8d 44 24 30       	lea    0x30(%rsp),%rax
 10024b7:	48 89 04 24          	mov    %rax,(%rsp)
 10024bb:	b8 ce 39 02 01       	mov    $0x10239ce,%eax
 10024c0:	48 89 44 24 08       	mov    %rax,0x8(%rsp)
 10024c5:	e8 61 93 00 00       	callq  100b82b <runtime.gostringnocopy>
 10024ca:	48 8d 44 24 40       	lea    0x40(%rsp),%rax
 10024cf:	48 89 04 24          	mov    %rax,(%rsp)
 10024d3:	48 8b 44 24 30       	mov    0x30(%rsp),%rax
 10024d8:	48 89 44 24 08       	mov    %rax,0x8(%rsp)
 10024dd:	48 8b 44 24 38       	mov    0x38(%rsp),%rax
 10024e2:	48 89 44 24 10       	mov    %rax,0x10(%rsp)
 10024e7:	48 8b 8c 24 88 00 00 	mov    0x88(%rsp),%rcx
 10024ee:	00 
 10024ef:	48 8b 49 20          	mov    0x20(%rcx),%rcx
 10024f3:	48 8b 01             	mov    (%rcx),%rax
 10024f6:	48 89 44 24 18       	mov    %rax,0x18(%rsp)
 10024fb:	48 8b 41 08          	mov    0x8(%rcx),%rax
 10024ff:	48 89 44 24 20       	mov    %rax,0x20(%rsp)
 1002504:	e8 6b 93 00 00       	callq  100b874 <runtime.catstring>
 1002509:	48 8b 44 24 40       	mov    0x40(%rsp),%rax
 100250e:	48 89 04 24          	mov    %rax,(%rsp)
 1002512:	48 8b 44 24 48       	mov    0x48(%rsp),%rax
 1002517:	48 89 44 24 08       	mov    %rax,0x8(%rsp)
 100251c:	48 8d 44 24 58       	lea    0x58(%rsp),%rax
 1002521:	48 89 44 24 10       	mov    %rax,0x10(%rsp)
 1002526:	e8 88 ec ff ff       	callq  10011b3 <runtime.newErrorString>
		runtime·panic(err);
 100252b:	48 8b 44 24 58       	mov    0x58(%rsp),%rax
 1002530:	48 89 04 24          	mov    %rax,(%rsp)
 1002534:	48 8b 44 24 60       	mov    0x60(%rsp),%rax
 1002539:	48 89 44 24 08       	mov    %rax,0x8(%rsp)
 100253e:	e8 59 71 00 00       	callq  100969c <runtime.panic>
 1002543:	8b 5c 24 6c          	mov    0x6c(%rsp),%ebx
 1002547:	8b 54 24 68          	mov    0x68(%rsp),%edx
	}

	if(wid <= sizeof(data1))
 100254b:	83 fa 08             	cmp    $0x8,%edx
 100254e:	7f 30                	jg     1002580 <ifaceeq1+0x11d>
		return runtime·algarray[alg].equal(wid, &data1, &data2);
 1002550:	89 14 24             	mov    %edx,(%rsp)
 1002553:	48 8d 4c 24 78       	lea    0x78(%rsp),%rcx
 1002558:	48 89 4c 24 08       	mov    %rcx,0x8(%rsp)
 100255d:	48 8d 8c 24 80 00 00 	lea    0x80(%rsp),%rcx
 1002564:	00 
 1002565:	48 89 4c 24 10       	mov    %rcx,0x10(%rsp)
 100256a:	48 63 cb             	movslq %ebx,%rcx
 100256d:	48 c1 e1 05          	shl    $0x5,%rcx
 1002571:	48 8b 04 0d b8 3a 02 	mov    0x1023ab8(,%rcx,1),%rax
 1002578:	01 
 1002579:	ff d0                	callq  *%rax
 100257b:	48 83 c4 70          	add    $0x70,%rsp
 100257f:	c3                   	retq   
	return runtime·algarray[alg].equal(wid, data1, data2);
 1002580:	89 14 24             	mov    %edx,(%rsp)
 1002583:	48 8b 4c 24 78       	mov    0x78(%rsp),%rcx
 1002588:	48 89 4c 24 08       	mov    %rcx,0x8(%rsp)
 100258d:	48 8b 8c 24 80 00 00 	mov    0x80(%rsp),%rcx
 1002594:	00 
 1002595:	48 89 4c 24 10       	mov    %rcx,0x10(%rsp)
 100259a:	48 63 cb             	movslq %ebx,%rcx
 100259d:	48 c1 e1 05          	shl    $0x5,%rcx
 10025a1:	48 8b 04 0d b8 3a 02 	mov    0x1023ab8(,%rcx,1),%rax
 10025a8:	01 
 10025a9:	ff d0                	callq  *%rax
 10025ab:	48 83 c4 70          	add    $0x70,%rsp
 10025af:	c3                   	retq   

00000000010025b0 <runtime.ifaceeq_c>:
}

bool
runtime·ifaceeq_c(Iface i1, Iface i2)
 10025b0:	64 48 8b 0c 25 f0 ff 	mov    %fs:0xfffffffffffffff0,%rcx
 10025b7:	ff ff 
 10025b9:	48 3b 21             	cmp    (%rcx),%rsp
 10025bc:	77 05                	ja     10025c3 <runtime.ifaceeq_c+0x13>
 10025be:	e8 a4 f3 ff ff       	callq  1001967 <runtime.morestack32>
 10025c3:	48 83 ec 20          	sub    $0x20,%rsp
{
	if(i1.tab != i2.tab)
 10025c7:	48 8b 44 24 28       	mov    0x28(%rsp),%rax
 10025cc:	48 3b 44 24 38       	cmp    0x38(%rsp),%rax
 10025d1:	74 07                	je     10025da <runtime.ifaceeq_c+0x2a>
		return false;
 10025d3:	31 c0                	xor    %eax,%eax
 10025d5:	48 83 c4 20          	add    $0x20,%rsp
 10025d9:	c3                   	retq   
	if(i1.tab == nil)
 10025da:	48 83 7c 24 28 00    	cmpq   $0x0,0x28(%rsp)
 10025e0:	75 0a                	jne    10025ec <runtime.ifaceeq_c+0x3c>
		return true;
 10025e2:	b8 01 00 00 00       	mov    $0x1,%eax
 10025e7:	48 83 c4 20          	add    $0x20,%rsp
 10025eb:	c3                   	retq   
	return ifaceeq1(i1.data, i2.data, i1.tab->type);
 10025ec:	48 8b 4c 24 30       	mov    0x30(%rsp),%rcx
 10025f1:	48 89 0c 24          	mov    %rcx,(%rsp)
 10025f5:	48 8b 4c 24 40       	mov    0x40(%rsp),%rcx
 10025fa:	48 89 4c 24 08       	mov    %rcx,0x8(%rsp)
 10025ff:	48 8b 4c 24 28       	mov    0x28(%rsp),%rcx
 1002604:	48 8b 49 08          	mov    0x8(%rcx),%rcx
 1002608:	48 89 4c 24 10       	mov    %rcx,0x10(%rsp)
 100260d:	e8 51 fe ff ff       	callq  1002463 <ifaceeq1>
 1002612:	48 83 c4 20          	add    $0x20,%rsp
 1002616:	c3                   	retq   

0000000001002617 <runtime.efaceeq_c>:
}

bool
runtime·efaceeq_c(Eface e1, Eface e2)
 1002617:	64 48 8b 0c 25 f0 ff 	mov    %fs:0xfffffffffffffff0,%rcx
 100261e:	ff ff 
 1002620:	48 3b 21             	cmp    (%rcx),%rsp
 1002623:	77 05                	ja     100262a <runtime.efaceeq_c+0x13>
 1002625:	e8 3d f3 ff ff       	callq  1001967 <runtime.morestack32>
 100262a:	48 83 ec 20          	sub    $0x20,%rsp
{
	if(((uintptr)e1.type&reflectFlags) != 0)
 100262e:	48 8b 44 24 28       	mov    0x28(%rsp),%rax
 1002633:	48 83 e0 03          	and    $0x3,%rax
 1002637:	48 83 f8 00          	cmp    $0x0,%rax
 100263b:	74 0e                	je     100264b <runtime.efaceeq_c+0x34>
		runtime·throw("invalid interface value");
 100263d:	b8 eb 39 02 01       	mov    $0x10239eb,%eax
 1002642:	48 89 04 24          	mov    %rax,(%rsp)
 1002646:	e8 ee 76 00 00       	callq  1009d39 <runtime.throw>
	if(((uintptr)e2.type&reflectFlags) != 0)
 100264b:	48 8b 44 24 38       	mov    0x38(%rsp),%rax
 1002650:	48 83 e0 03          	and    $0x3,%rax
 1002654:	48 83 f8 00          	cmp    $0x0,%rax
 1002658:	74 0e                	je     1002668 <runtime.efaceeq_c+0x51>
		runtime·throw("invalid interface value");
 100265a:	b8 03 3a 02 01       	mov    $0x1023a03,%eax
 100265f:	48 89 04 24          	mov    %rax,(%rsp)
 1002663:	e8 d1 76 00 00       	callq  1009d39 <runtime.throw>
	if(e1.type != e2.type)
 1002668:	48 8b 44 24 28       	mov    0x28(%rsp),%rax
 100266d:	48 3b 44 24 38       	cmp    0x38(%rsp),%rax
 1002672:	74 07                	je     100267b <runtime.efaceeq_c+0x64>
		return false;
 1002674:	31 c0                	xor    %eax,%eax
 1002676:	48 83 c4 20          	add    $0x20,%rsp
 100267a:	c3                   	retq   
	if(e1.type == nil)
 100267b:	48 83 7c 24 28 00    	cmpq   $0x0,0x28(%rsp)
 1002681:	75 0a                	jne    100268d <runtime.efaceeq_c+0x76>
		return true;
 1002683:	b8 01 00 00 00       	mov    $0x1,%eax
 1002688:	48 83 c4 20          	add    $0x20,%rsp
 100268c:	c3                   	retq   
	return ifaceeq1(e1.data, e2.data, e1.type);
 100268d:	48 8b 4c 24 30       	mov    0x30(%rsp),%rcx
 1002692:	48 89 0c 24          	mov    %rcx,(%rsp)
 1002696:	48 8b 4c 24 40       	mov    0x40(%rsp),%rcx
 100269b:	48 89 4c 24 08       	mov    %rcx,0x8(%rsp)
 10026a0:	48 8b 4c 24 28       	mov    0x28(%rsp),%rcx
 10026a5:	48 89 4c 24 10       	mov    %rcx,0x10(%rsp)
 10026aa:	e8 b4 fd ff ff       	callq  1002463 <ifaceeq1>
 10026af:	48 83 c4 20          	add    $0x20,%rsp
 10026b3:	c3                   	retq   

00000000010026b4 <runtime.efacethash>:
	FLUSH(&ret);
}

// efacethash(e1 any) (ret uint32)
void
runtime·efacethash(Eface e1, uint32 ret)
 10026b4:	64 48 8b 0c 25 f0 ff 	mov    %fs:0xfffffffffffffff0,%rcx
 10026bb:	ff ff 
 10026bd:	48 3b 21             	cmp    (%rcx),%rsp
 10026c0:	77 05                	ja     10026c7 <runtime.efacethash+0x13>
 10026c2:	e8 97 f2 ff ff       	callq  100195e <runtime.morestack24>
 10026c7:	48 83 ec 20          	sub    $0x20,%rsp
{
	Type *t;

	if(((uintptr)e1.type&reflectFlags) != 0)
 10026cb:	48 8b 44 24 28       	mov    0x28(%rsp),%rax
 10026d0:	48 83 e0 03          	and    $0x3,%rax
 10026d4:	48 83 f8 00          	cmp    $0x0,%rax
 10026d8:	74 0e                	je     10026e8 <runtime.efacethash+0x34>
		runtime·throw("invalid interface value");
 10026da:	b8 1b 3a 02 01       	mov    $0x1023a1b,%eax
 10026df:	48 89 04 24          	mov    %rax,(%rsp)
 10026e3:	e8 51 76 00 00       	callq  1009d39 <runtime.throw>
	ret = 0;
 10026e8:	c7 44 24 38 00 00 00 	movl   $0x0,0x38(%rsp)
 10026ef:	00 
	t = e1.type;
 10026f0:	48 8b 44 24 28       	mov    0x28(%rsp),%rax
	if(t != nil)
 10026f5:	48 83 f8 00          	cmp    $0x0,%rax
 10026f9:	74 07                	je     1002702 <runtime.efacethash+0x4e>
		ret = t->hash;
 10026fb:	8b 40 18             	mov    0x18(%rax),%eax
 10026fe:	89 44 24 38          	mov    %eax,0x38(%rsp)
 1002702:	48 83 c4 20          	add    $0x20,%rsp
 1002706:	c3                   	retq   

0000000001002707 <runtime.mallocgc>:

// Allocate an object of at least size bytes.
// Small objects are allocated from the per-thread cache's free lists.
// Large objects (> 32 kB) are allocated straight from the heap.
void*
runtime·mallocgc(uintptr size, uint32 flag, int32 dogc, int32 zeroed)
 1002707:	64 48 8b 0c 25 f0 ff 	mov    %fs:0xfffffffffffffff0,%rcx
 100270e:	ff ff 
 1002710:	48 3b 21             	cmp    (%rcx),%rsp
 1002713:	77 05                	ja     100271a <runtime.mallocgc+0x13>
 1002715:	e8 44 f2 ff ff       	callq  100195e <runtime.morestack24>
 100271a:	48 83 ec 58          	sub    $0x58,%rsp
 100271e:	48 8b 54 24 60       	mov    0x60(%rsp),%rdx
	MCache *c;
	uintptr npages;
	MSpan *s;
	void *v;

	if(runtime·gcwaiting && g != m->g0 && m->locks == 0)
 1002723:	83 3c 25 14 4e 02 01 	cmpl   $0x0,0x1024e14
 100272a:	00 
 100272b:	74 1e                	je     100274b <runtime.mallocgc+0x44>
 100272d:	64 48 8b 04 25 f0 ff 	mov    %fs:0xfffffffffffffff0,%rax
 1002734:	ff ff 
 1002736:	64 48 8b 0c 25 f8 ff 	mov    %fs:0xfffffffffffffff8,%rcx
 100273d:	ff ff 
 100273f:	48 8b 09             	mov    (%rcx),%rcx
 1002742:	48 39 c8             	cmp    %rcx,%rax
 1002745:	0f 85 19 03 00 00    	jne    1002a64 <runtime.mallocgc+0x35d>
		runtime·gosched();
	if(m->mallocing)
 100274b:	64 48 8b 04 25 f8 ff 	mov    %fs:0xfffffffffffffff8,%rax
 1002752:	ff ff 
 1002754:	8b 40 7c             	mov    0x7c(%rax),%eax
 1002757:	83 f8 00             	cmp    $0x0,%eax
 100275a:	74 13                	je     100276f <runtime.mallocgc+0x68>
		runtime·throw("malloc/free - deadlock");
 100275c:	b8 30 43 02 01       	mov    $0x1024330,%eax
 1002761:	48 89 04 24          	mov    %rax,(%rsp)
 1002765:	e8 cf 75 00 00       	callq  1009d39 <runtime.throw>
 100276a:	48 8b 54 24 60       	mov    0x60(%rsp),%rdx
	m->mallocing = 1;
 100276f:	64 48 8b 04 25 f8 ff 	mov    %fs:0xfffffffffffffff8,%rax
 1002776:	ff ff 
 1002778:	c7 40 7c 01 00 00 00 	movl   $0x1,0x7c(%rax)
	if(size == 0)
 100277f:	48 83 fa 00          	cmp    $0x0,%rdx
 1002783:	75 07                	jne    100278c <runtime.mallocgc+0x85>
		size = 1;
 1002785:	48 c7 c2 01 00 00 00 	mov    $0x1,%rdx

	c = m->mcache;
 100278c:	64 48 8b 04 25 f8 ff 	mov    %fs:0xfffffffffffffff8,%rax
 1002793:	ff ff 
 1002795:	48 8b 88 d8 00 00 00 	mov    0xd8(%rax),%rcx
	c->local_nmalloc++;
 100279c:	48 89 4c 24 48       	mov    %rcx,0x48(%rsp)
 10027a1:	48 ff 81 f8 03 00 00 	incq   0x3f8(%rcx)
	if(size <= MaxSmallSize) {
 10027a8:	48 81 fa 00 80 00 00 	cmp    $0x8000,%rdx
 10027af:	0f 87 e5 01 00 00    	ja     100299a <runtime.mallocgc+0x293>
		// Allocate from mcache free lists.
		sizeclass = runtime·SizeToClass(size);
 10027b5:	48 63 ca             	movslq %edx,%rcx
 10027b8:	89 0c 24             	mov    %ecx,(%rsp)
 10027bb:	e8 f9 47 00 00       	callq  1006fb9 <runtime.SizeToClass>
 10027c0:	89 c2                	mov    %eax,%edx
		size = runtime·class_to_size[sizeclass];
 10027c2:	48 63 c8             	movslq %eax,%rcx
 10027c5:	8b 04 8d d8 51 02 01 	mov    0x10251d8(,%rcx,4),%eax
 10027cc:	48 63 c0             	movslq %eax,%rax
		v = runtime·MCache_Alloc(c, sizeclass, size, zeroed);
 10027cf:	48 8b 4c 24 48       	mov    0x48(%rsp),%rcx
 10027d4:	48 89 0c 24          	mov    %rcx,(%rsp)
 10027d8:	89 54 24 54          	mov    %edx,0x54(%rsp)
 10027dc:	89 54 24 08          	mov    %edx,0x8(%rsp)
 10027e0:	48 89 44 24 60       	mov    %rax,0x60(%rsp)
 10027e5:	48 89 44 24 10       	mov    %rax,0x10(%rsp)
 10027ea:	8b 4c 24 70          	mov    0x70(%rsp),%ecx
 10027ee:	89 4c 24 18          	mov    %ecx,0x18(%rsp)
 10027f2:	e8 12 0b 00 00       	callq  1003309 <runtime.MCache_Alloc>
 10027f7:	48 8b 6c 24 48       	mov    0x48(%rsp),%rbp
 10027fc:	48 8b 5c 24 60       	mov    0x60(%rsp),%rbx
 1002801:	48 89 44 24 30       	mov    %rax,0x30(%rsp)
		if(v == nil)
 1002806:	48 83 7c 24 30 00    	cmpq   $0x0,0x30(%rsp)
 100280c:	75 18                	jne    1002826 <runtime.mallocgc+0x11f>
			runtime·throw("out of memory");
 100280e:	b8 47 43 02 01       	mov    $0x1024347,%eax
 1002813:	48 89 04 24          	mov    %rax,(%rsp)
 1002817:	e8 1d 75 00 00       	callq  1009d39 <runtime.throw>
 100281c:	48 8b 6c 24 48       	mov    0x48(%rsp),%rbp
 1002821:	48 8b 5c 24 60       	mov    0x60(%rsp),%rbx
		c->local_alloc += size;
 1002826:	48 01 9d e8 03 00 00 	add    %rbx,0x3e8(%rbp)
		c->local_total_alloc += size;
 100282d:	48 01 9d f0 03 00 00 	add    %rbx,0x3f0(%rbp)
		c->local_by_size[sizeclass].nmalloc++;
 1002834:	8b 4c 24 54          	mov    0x54(%rsp),%ecx
 1002838:	48 63 c9             	movslq %ecx,%rcx
 100283b:	48 c1 e1 04          	shl    $0x4,%rcx
 100283f:	48 89 ea             	mov    %rbp,%rdx
 1002842:	48 8d 04 0a          	lea    (%rdx,%rcx,1),%rax
 1002846:	48 ff 80 18 04 00 00 	incq   0x418(%rax)
		v = (void*)(s->start << PageShift);

		// setup for mark sweep
		runtime·markspan(v, 0, 0, true);
	}
	if(!(flag & FlagNoGC))
 100284d:	8b 44 24 68          	mov    0x68(%rsp),%eax
 1002851:	83 e0 04             	and    $0x4,%eax
 1002854:	83 f8 00             	cmp    $0x0,%eax
 1002857:	75 31                	jne    100288a <runtime.mallocgc+0x183>
		runtime·markallocated(v, size, (flag&FlagNoPointers) != 0);
 1002859:	48 8b 44 24 30       	mov    0x30(%rsp),%rax
 100285e:	48 89 04 24          	mov    %rax,(%rsp)
 1002862:	48 89 5c 24 08       	mov    %rbx,0x8(%rsp)
 1002867:	8b 44 24 68          	mov    0x68(%rsp),%eax
 100286b:	83 e0 01             	and    $0x1,%eax
 100286e:	83 f8 00             	cmp    $0x0,%eax
 1002871:	0f 84 1c 01 00 00    	je     1002993 <runtime.mallocgc+0x28c>
 1002877:	b8 01 00 00 00       	mov    $0x1,%eax
 100287c:	88 44 24 10          	mov    %al,0x10(%rsp)
 1002880:	e8 41 2d 00 00       	callq  10055c6 <runtime.markallocated>
 1002885:	48 8b 5c 24 60       	mov    0x60(%rsp),%rbx

	m->mallocing = 0;
 100288a:	64 48 8b 04 25 f8 ff 	mov    %fs:0xfffffffffffffff8,%rax
 1002891:	ff ff 
 1002893:	c7 40 7c 00 00 00 00 	movl   $0x0,0x7c(%rax)

	if(!(flag & FlagNoProfiling) && (rate = runtime·MemProfileRate) > 0) {
 100289a:	8b 44 24 68          	mov    0x68(%rsp),%eax
 100289e:	83 e0 02             	and    $0x2,%eax
 10028a1:	83 f8 00             	cmp    $0x0,%eax
 10028a4:	75 0c                	jne    10028b2 <runtime.mallocgc+0x1ab>
 10028a6:	8b 0c 25 08 30 02 01 	mov    0x1023008,%ecx
 10028ad:	83 f9 00             	cmp    $0x0,%ecx
 10028b0:	7f 31                	jg     10028e3 <runtime.mallocgc+0x1dc>
			runtime·setblockspecial(v);
			runtime·MProf_Malloc(v, size);
		}
	}

	if(dogc && mstats.heap_alloc >= mstats.next_gc)
 10028b2:	83 7c 24 6c 00       	cmpl   $0x0,0x6c(%rsp)
 10028b7:	74 12                	je     10028cb <runtime.mallocgc+0x1c4>
 10028b9:	48 8b 04 25 88 62 02 	mov    0x1026288,%rax
 10028c0:	01 
 10028c1:	48 3b 04 25 e8 62 02 	cmp    0x10262e8,%rax
 10028c8:	01 
 10028c9:	73 0a                	jae    10028d5 <runtime.mallocgc+0x1ce>
		runtime·gc(0);
	return v;
 10028cb:	48 8b 44 24 30       	mov    0x30(%rsp),%rax
 10028d0:	48 83 c4 58          	add    $0x58,%rsp
 10028d4:	c3                   	retq   
			runtime·MProf_Malloc(v, size);
		}
	}

	if(dogc && mstats.heap_alloc >= mstats.next_gc)
		runtime·gc(0);
 10028d5:	c7 04 24 00 00 00 00 	movl   $0x0,(%rsp)
 10028dc:	e8 d2 26 00 00       	callq  1004fb3 <runtime.gc>
	return v;
 10028e1:	eb e8                	jmp    10028cb <runtime.mallocgc+0x1c4>
		runtime·markallocated(v, size, (flag&FlagNoPointers) != 0);

	m->mallocing = 0;

	if(!(flag & FlagNoProfiling) && (rate = runtime·MemProfileRate) > 0) {
		if(size >= rate)
 10028e3:	48 63 c1             	movslq %ecx,%rax
 10028e6:	48 39 c3             	cmp    %rax,%rbx
 10028e9:	72 28                	jb     1002913 <runtime.mallocgc+0x20c>
			// pick next profile time
			if(rate > 0x3fffffff)	// make 2*rate not overflow
				rate = 0x3fffffff;
			m->mcache->next_sample = runtime·fastrand1() % (2*rate);
		profile:
			runtime·setblockspecial(v);
 10028eb:	48 8b 44 24 30       	mov    0x30(%rsp),%rax
 10028f0:	48 89 04 24          	mov    %rax,(%rsp)
 10028f4:	e8 41 32 00 00       	callq  1005b3a <runtime.setblockspecial>
			runtime·MProf_Malloc(v, size);
 10028f9:	48 8b 44 24 30       	mov    0x30(%rsp),%rax
 10028fe:	48 89 04 24          	mov    %rax,(%rsp)
 1002902:	48 8b 44 24 60       	mov    0x60(%rsp),%rax
 1002907:	48 89 44 24 08       	mov    %rax,0x8(%rsp)
 100290c:	e8 2f 45 00 00       	callq  1006e40 <runtime.MProf_Malloc>
		}
	}

	if(dogc && mstats.heap_alloc >= mstats.next_gc)
 1002911:	eb 9f                	jmp    10028b2 <runtime.mallocgc+0x1ab>
	m->mallocing = 0;

	if(!(flag & FlagNoProfiling) && (rate = runtime·MemProfileRate) > 0) {
		if(size >= rate)
			goto profile;
		if(m->mcache->next_sample > size)
 1002913:	64 48 8b 04 25 f8 ff 	mov    %fs:0xfffffffffffffff8,%rax
 100291a:	ff ff 
 100291c:	48 8b 80 d8 00 00 00 	mov    0xd8(%rax),%rax
 1002923:	8b 80 10 04 00 00    	mov    0x410(%rax),%eax
 1002929:	48 63 c0             	movslq %eax,%rax
 100292c:	48 39 d8             	cmp    %rbx,%rax
 100292f:	76 1e                	jbe    100294f <runtime.mallocgc+0x248>
			m->mcache->next_sample -= size;
 1002931:	64 48 8b 04 25 f8 ff 	mov    %fs:0xfffffffffffffff8,%rax
 1002938:	ff ff 
 100293a:	48 8b 80 d8 00 00 00 	mov    0xd8(%rax),%rax
 1002941:	48 63 cb             	movslq %ebx,%rcx
 1002944:	29 88 10 04 00 00    	sub    %ecx,0x410(%rax)
			runtime·setblockspecial(v);
			runtime·MProf_Malloc(v, size);
		}
	}

	if(dogc && mstats.heap_alloc >= mstats.next_gc)
 100294a:	e9 63 ff ff ff       	jmpq   10028b2 <runtime.mallocgc+0x1ab>
			goto profile;
		if(m->mcache->next_sample > size)
			m->mcache->next_sample -= size;
		else {
			// pick next profile time
			if(rate > 0x3fffffff)	// make 2*rate not overflow
 100294f:	81 f9 ff ff ff 3f    	cmp    $0x3fffffff,%ecx
 1002955:	89 4c 24 50          	mov    %ecx,0x50(%rsp)
 1002959:	7e 08                	jle    1002963 <runtime.mallocgc+0x25c>
				rate = 0x3fffffff;
 100295b:	c7 44 24 50 ff ff ff 	movl   $0x3fffffff,0x50(%rsp)
 1002962:	3f 
			m->mcache->next_sample = runtime·fastrand1() % (2*rate);
 1002963:	e8 d1 80 00 00       	callq  100aa39 <runtime.fastrand1>
 1002968:	31 d2                	xor    %edx,%edx
 100296a:	8b 4c 24 50          	mov    0x50(%rsp),%ecx
 100296e:	01 c9                	add    %ecx,%ecx
 1002970:	89 4c 24 24          	mov    %ecx,0x24(%rsp)
 1002974:	f7 74 24 24          	divl   0x24(%rsp)
 1002978:	64 48 8b 0c 25 f8 ff 	mov    %fs:0xfffffffffffffff8,%rcx
 100297f:	ff ff 
 1002981:	48 8b 89 d8 00 00 00 	mov    0xd8(%rcx),%rcx
 1002988:	89 91 10 04 00 00    	mov    %edx,0x410(%rcx)
		profile:
			runtime·setblockspecial(v);
 100298e:	e9 58 ff ff ff       	jmpq   10028eb <runtime.mallocgc+0x1e4>

		// setup for mark sweep
		runtime·markspan(v, 0, 0, true);
	}
	if(!(flag & FlagNoGC))
		runtime·markallocated(v, size, (flag&FlagNoPointers) != 0);
 1002993:	31 c0                	xor    %eax,%eax
 1002995:	e9 e2 fe ff ff       	jmpq   100287c <runtime.mallocgc+0x175>
		c->local_by_size[sizeclass].nmalloc++;
	} else {
		// TODO(rsc): Report tracebacks for very large allocations.

		// Allocate directly from heap.
		npages = size >> PageShift;
 100299a:	48 89 d0             	mov    %rdx,%rax
 100299d:	48 c1 e8 0c          	shr    $0xc,%rax
 10029a1:	48 89 c3             	mov    %rax,%rbx
		if((size & PageMask) != 0)
 10029a4:	48 89 d0             	mov    %rdx,%rax
 10029a7:	48 25 ff 0f 00 00    	and    $0xfff,%rax
 10029ad:	48 83 f8 00          	cmp    $0x0,%rax
 10029b1:	74 03                	je     10029b6 <runtime.mallocgc+0x2af>
			npages++;
 10029b3:	48 ff c3             	inc    %rbx
		s = runtime·MHeap_Alloc(&runtime·mheap, npages, 0, 1);
 10029b6:	b9 80 a0 03 01       	mov    $0x103a080,%ecx
 10029bb:	48 89 0c 24          	mov    %rcx,(%rsp)
 10029bf:	48 89 5c 24 40       	mov    %rbx,0x40(%rsp)
 10029c4:	48 89 5c 24 08       	mov    %rbx,0x8(%rsp)
 10029c9:	c7 44 24 10 00 00 00 	movl   $0x0,0x10(%rsp)
 10029d0:	00 
 10029d1:	b9 01 00 00 00       	mov    $0x1,%ecx
 10029d6:	89 4c 24 14          	mov    %ecx,0x14(%rsp)
 10029da:	e8 0b 34 00 00       	callq  1005dea <runtime.MHeap_Alloc>
 10029df:	48 89 c3             	mov    %rax,%rbx
		if(s == nil)
 10029e2:	48 83 f8 00          	cmp    $0x0,%rax
 10029e6:	48 89 44 24 38       	mov    %rax,0x38(%rsp)
 10029eb:	75 13                	jne    1002a00 <runtime.mallocgc+0x2f9>
			runtime·throw("out of memory");
 10029ed:	b8 55 43 02 01       	mov    $0x1024355,%eax
 10029f2:	48 89 04 24          	mov    %rax,(%rsp)
 10029f6:	e8 3e 73 00 00       	callq  1009d39 <runtime.throw>
 10029fb:	48 8b 5c 24 38       	mov    0x38(%rsp),%rbx
		size = npages<<PageShift;
 1002a00:	48 8b 44 24 40       	mov    0x40(%rsp),%rax
 1002a05:	48 c1 e0 0c          	shl    $0xc,%rax
 1002a09:	48 89 c2             	mov    %rax,%rdx
		c->local_alloc += size;
 1002a0c:	48 8b 44 24 48       	mov    0x48(%rsp),%rax
 1002a11:	48 01 90 e8 03 00 00 	add    %rdx,0x3e8(%rax)
		c->local_total_alloc += size;
 1002a18:	48 8b 44 24 48       	mov    0x48(%rsp),%rax
 1002a1d:	48 89 54 24 60       	mov    %rdx,0x60(%rsp)
 1002a22:	48 01 90 f0 03 00 00 	add    %rdx,0x3f0(%rax)
		v = (void*)(s->start << PageShift);
 1002a29:	48 8b 43 18          	mov    0x18(%rbx),%rax
 1002a2d:	48 c1 e0 0c          	shl    $0xc,%rax

		// setup for mark sweep
		runtime·markspan(v, 0, 0, true);
 1002a31:	48 89 44 24 30       	mov    %rax,0x30(%rsp)
 1002a36:	48 89 04 24          	mov    %rax,(%rsp)
 1002a3a:	48 c7 44 24 08 00 00 	movq   $0x0,0x8(%rsp)
 1002a41:	00 00 
 1002a43:	48 c7 44 24 10 00 00 	movq   $0x0,0x10(%rsp)
 1002a4a:	00 00 
 1002a4c:	b8 01 00 00 00       	mov    $0x1,%eax
 1002a51:	88 44 24 18          	mov    %al,0x18(%rsp)
 1002a55:	e8 56 2e 00 00       	callq  10058b0 <runtime.markspan>
 1002a5a:	48 8b 5c 24 60       	mov    0x60(%rsp),%rbx
	}
	if(!(flag & FlagNoGC))
 1002a5f:	e9 e9 fd ff ff       	jmpq   100284d <runtime.mallocgc+0x146>
	MCache *c;
	uintptr npages;
	MSpan *s;
	void *v;

	if(runtime·gcwaiting && g != m->g0 && m->locks == 0)
 1002a64:	64 48 8b 04 25 f8 ff 	mov    %fs:0xfffffffffffffff8,%rax
 1002a6b:	ff ff 
 1002a6d:	8b 80 84 00 00 00    	mov    0x84(%rax),%eax
 1002a73:	83 f8 00             	cmp    $0x0,%eax
 1002a76:	0f 85 cf fc ff ff    	jne    100274b <runtime.mallocgc+0x44>
		runtime·gosched();
 1002a7c:	e8 2f 63 00 00       	callq  1008db0 <runtime.gosched>
 1002a81:	48 8b 54 24 60       	mov    0x60(%rsp),%rdx
	if(m->mallocing)
 1002a86:	e9 c0 fc ff ff       	jmpq   100274b <runtime.mallocgc+0x44>

0000000001002a8b <runtime.malloc>:
		runtime·gc(0);
	return v;
}

void*
runtime·malloc(uintptr size)
 1002a8b:	64 48 8b 0c 25 f0 ff 	mov    %fs:0xfffffffffffffff0,%rcx
 1002a92:	ff ff 
 1002a94:	48 3b 21             	cmp    (%rcx),%rsp
 1002a97:	77 05                	ja     1002a9e <runtime.malloc+0x13>
 1002a99:	e8 ae ee ff ff       	callq  100194c <runtime.morestack8>
 1002a9e:	48 83 ec 20          	sub    $0x20,%rsp
{
	return runtime·mallocgc(size, 0, 0, 1);
 1002aa2:	48 8b 4c 24 28       	mov    0x28(%rsp),%rcx
 1002aa7:	48 89 0c 24          	mov    %rcx,(%rsp)
 1002aab:	c7 44 24 08 00 00 00 	movl   $0x0,0x8(%rsp)
 1002ab2:	00 
 1002ab3:	c7 44 24 0c 00 00 00 	movl   $0x0,0xc(%rsp)
 1002aba:	00 
 1002abb:	b9 01 00 00 00       	mov    $0x1,%ecx
 1002ac0:	89 4c 24 10          	mov    %ecx,0x10(%rsp)
 1002ac4:	e8 3e fc ff ff       	callq  1002707 <runtime.mallocgc>
 1002ac9:	48 83 c4 20          	add    $0x20,%rsp
 1002acd:	c3                   	retq   

0000000001002ace <runtime.free>:
}

// Free the object whose base pointer is v.
void
runtime·free(void *v)
 1002ace:	64 48 8b 0c 25 f0 ff 	mov    %fs:0xfffffffffffffff0,%rcx
 1002ad5:	ff ff 
 1002ad7:	48 3b 21             	cmp    (%rcx),%rsp
 1002ada:	77 05                	ja     1002ae1 <runtime.free+0x13>
 1002adc:	e8 6b ee ff ff       	callq  100194c <runtime.morestack8>
 1002ae1:	48 83 ec 58          	sub    $0x58,%rsp
	MSpan *s;
	MCache *c;
	uint32 prof;
	uintptr size;

	if(v == nil)
 1002ae5:	48 83 7c 24 60 00    	cmpq   $0x0,0x60(%rsp)
 1002aeb:	75 05                	jne    1002af2 <runtime.free+0x24>
		return;
 1002aed:	48 83 c4 58          	add    $0x58,%rsp
 1002af1:	c3                   	retq   
	
	// If you change this also change mgc0.c:/^sweepspan,
	// which has a copy of the guts of free.

	if(m->mallocing)
 1002af2:	64 48 8b 04 25 f8 ff 	mov    %fs:0xfffffffffffffff8,%rax
 1002af9:	ff ff 
 1002afb:	8b 40 7c             	mov    0x7c(%rax),%eax
 1002afe:	83 f8 00             	cmp    $0x0,%eax
 1002b01:	74 0e                	je     1002b11 <runtime.free+0x43>
		runtime·throw("malloc/free - deadlock");
 1002b03:	b8 63 43 02 01       	mov    $0x1024363,%eax
 1002b08:	48 89 04 24          	mov    %rax,(%rsp)
 1002b0c:	e8 28 72 00 00       	callq  1009d39 <runtime.throw>
	m->mallocing = 1;
 1002b11:	64 48 8b 04 25 f8 ff 	mov    %fs:0xfffffffffffffff8,%rax
 1002b18:	ff ff 
 1002b1a:	c7 40 7c 01 00 00 00 	movl   $0x1,0x7c(%rax)

	if(!runtime·mlookup(v, nil, nil, &s)) {
 1002b21:	48 8b 4c 24 60       	mov    0x60(%rsp),%rcx
 1002b26:	48 89 0c 24          	mov    %rcx,(%rsp)
 1002b2a:	48 c7 44 24 08 00 00 	movq   $0x0,0x8(%rsp)
 1002b31:	00 00 
 1002b33:	48 c7 44 24 10 00 00 	movq   $0x0,0x10(%rsp)
 1002b3a:	00 00 
 1002b3c:	48 8d 4c 24 48       	lea    0x48(%rsp),%rcx
 1002b41:	48 89 4c 24 18       	mov    %rcx,0x18(%rsp)
 1002b46:	e8 95 01 00 00       	callq  1002ce0 <runtime.mlookup>
 1002b4b:	83 f8 00             	cmp    $0x0,%eax
 1002b4e:	75 26                	jne    1002b76 <runtime.free+0xa8>
		runtime·printf("free %p: not an allocated block\n", v);
 1002b50:	b8 7a 43 02 01       	mov    $0x102437a,%eax
 1002b55:	48 89 04 24          	mov    %rax,(%rsp)
 1002b59:	48 8b 44 24 60       	mov    0x60(%rsp),%rax
 1002b5e:	48 89 44 24 08       	mov    %rax,0x8(%rsp)
 1002b63:	e8 d6 47 00 00       	callq  100733e <runtime.printf>
		runtime·throw("free runtime·mlookup");
 1002b68:	b8 9b 43 02 01       	mov    $0x102439b,%eax
 1002b6d:	48 89 04 24          	mov    %rax,(%rsp)
 1002b71:	e8 c3 71 00 00       	callq  1009d39 <runtime.throw>
	}
	prof = runtime·blockspecial(v);
 1002b76:	48 8b 4c 24 60       	mov    0x60(%rsp),%rcx
 1002b7b:	48 89 0c 24          	mov    %rcx,(%rsp)
 1002b7f:	e8 43 2f 00 00       	callq  1005ac7 <runtime.blockspecial>
 1002b84:	48 8b 5c 24 60       	mov    0x60(%rsp),%rbx
 1002b89:	0f b6 c0             	movzbl %al,%eax
 1002b8c:	89 44 24 3c          	mov    %eax,0x3c(%rsp)

	// Find size class for v.
	sizeclass = s->sizeclass;
 1002b90:	48 8b 44 24 48       	mov    0x48(%rsp),%rax
 1002b95:	8b 50 34             	mov    0x34(%rax),%edx
	c = m->mcache;
 1002b98:	64 48 8b 04 25 f8 ff 	mov    %fs:0xfffffffffffffff8,%rax
 1002b9f:	ff ff 
 1002ba1:	48 8b 80 d8 00 00 00 	mov    0xd8(%rax),%rax
 1002ba8:	48 89 44 24 40       	mov    %rax,0x40(%rsp)
	if(sizeclass == 0) {
 1002bad:	83 fa 00             	cmp    $0x0,%edx
 1002bb0:	0f 85 b7 00 00 00    	jne    1002c6d <runtime.free+0x19f>
		// Large object.
		size = s->npages<<PageShift;
 1002bb6:	48 8b 44 24 48       	mov    0x48(%rsp),%rax
 1002bbb:	48 8b 40 20          	mov    0x20(%rax),%rax
 1002bbf:	48 c1 e0 0c          	shl    $0xc,%rax
 1002bc3:	48 89 c1             	mov    %rax,%rcx
		*(uintptr*)(s->start<<PageShift) = 1;	// mark as "needs to be zeroed"
 1002bc6:	48 8b 44 24 48       	mov    0x48(%rsp),%rax
 1002bcb:	48 8b 40 18          	mov    0x18(%rax),%rax
 1002bcf:	48 c1 e0 0c          	shl    $0xc,%rax
 1002bd3:	48 c7 00 01 00 00 00 	movq   $0x1,(%rax)
		// Must mark v freed before calling unmarkspan and MHeap_Free:
		// they might coalesce v into other spans and change the bitmap further.
		runtime·markfreed(v, size);
 1002bda:	48 89 1c 24          	mov    %rbx,(%rsp)
 1002bde:	48 89 4c 24 30       	mov    %rcx,0x30(%rsp)
 1002be3:	48 89 4c 24 08       	mov    %rcx,0x8(%rsp)
 1002be8:	e8 ed 2a 00 00       	callq  10056da <runtime.markfreed>
		runtime·unmarkspan(v, 1<<PageShift);
 1002bed:	48 8b 44 24 60       	mov    0x60(%rsp),%rax
 1002bf2:	48 89 04 24          	mov    %rax,(%rsp)
 1002bf6:	48 c7 c0 00 10 00 00 	mov    $0x1000,%rax
 1002bfd:	48 89 44 24 08       	mov    %rax,0x8(%rsp)
 1002c02:	e8 ad 2d 00 00       	callq  10059b4 <runtime.unmarkspan>
		runtime·MHeap_Free(&runtime·mheap, s, 1);
 1002c07:	b8 80 a0 03 01       	mov    $0x103a080,%eax
 1002c0c:	48 89 04 24          	mov    %rax,(%rsp)
 1002c10:	48 8b 44 24 48       	mov    0x48(%rsp),%rax
 1002c15:	48 89 44 24 08       	mov    %rax,0x8(%rsp)
 1002c1a:	b8 01 00 00 00       	mov    $0x1,%eax
 1002c1f:	89 44 24 10          	mov    %eax,0x10(%rsp)
 1002c23:	e8 d6 38 00 00       	callq  10064fe <runtime.MHeap_Free>
		// and change the bitmap further.
		runtime·markfreed(v, size);
		c->local_by_size[sizeclass].nfree++;
		runtime·MCache_Free(c, v, sizeclass, size);
	}
	c->local_alloc -= size;
 1002c28:	48 8b 44 24 40       	mov    0x40(%rsp),%rax
 1002c2d:	48 8b 4c 24 30       	mov    0x30(%rsp),%rcx
 1002c32:	48 29 88 e8 03 00 00 	sub    %rcx,0x3e8(%rax)
	if(prof)
 1002c39:	83 7c 24 3c 00       	cmpl   $0x0,0x3c(%rsp)
 1002c3e:	74 18                	je     1002c58 <runtime.free+0x18a>
		runtime·MProf_Free(v, size);
 1002c40:	48 8b 44 24 60       	mov    0x60(%rsp),%rax
 1002c45:	48 89 04 24          	mov    %rax,(%rsp)
 1002c49:	48 8b 44 24 30       	mov    0x30(%rsp),%rax
 1002c4e:	48 89 44 24 08       	mov    %rax,0x8(%rsp)
 1002c53:	e8 d1 42 00 00       	callq  1006f29 <runtime.MProf_Free>
	m->mallocing = 0;
 1002c58:	64 48 8b 04 25 f8 ff 	mov    %fs:0xfffffffffffffff8,%rax
 1002c5f:	ff ff 
 1002c61:	c7 40 7c 00 00 00 00 	movl   $0x0,0x7c(%rax)
 1002c68:	48 83 c4 58          	add    $0x58,%rsp
 1002c6c:	c3                   	retq   
		runtime·markfreed(v, size);
		runtime·unmarkspan(v, 1<<PageShift);
		runtime·MHeap_Free(&runtime·mheap, s, 1);
	} else {
		// Small object.
		size = runtime·class_to_size[sizeclass];
 1002c6d:	89 54 24 54          	mov    %edx,0x54(%rsp)
 1002c71:	48 63 ca             	movslq %edx,%rcx
 1002c74:	8b 0c 8d d8 51 02 01 	mov    0x10251d8(,%rcx,4),%ecx
 1002c7b:	48 63 c9             	movslq %ecx,%rcx
		if(size > sizeof(uintptr))
 1002c7e:	48 83 f9 08          	cmp    $0x8,%rcx
 1002c82:	76 08                	jbe    1002c8c <runtime.free+0x1be>
			((uintptr*)v)[1] = 1;	// mark as "needs to be zeroed"
 1002c84:	48 c7 43 08 01 00 00 	movq   $0x1,0x8(%rbx)
 1002c8b:	00 
		// Must mark v freed before calling MCache_Free:
		// it might coalesce v and other blocks into a bigger span
		// and change the bitmap further.
		runtime·markfreed(v, size);
 1002c8c:	48 89 1c 24          	mov    %rbx,(%rsp)
 1002c90:	48 89 4c 24 30       	mov    %rcx,0x30(%rsp)
 1002c95:	48 89 4c 24 08       	mov    %rcx,0x8(%rsp)
 1002c9a:	e8 3b 2a 00 00       	callq  10056da <runtime.markfreed>
 1002c9f:	8b 6c 24 54          	mov    0x54(%rsp),%ebp
 1002ca3:	48 8b 5c 24 40       	mov    0x40(%rsp),%rbx
		c->local_by_size[sizeclass].nfree++;
 1002ca8:	48 63 cd             	movslq %ebp,%rcx
 1002cab:	48 c1 e1 04          	shl    $0x4,%rcx
 1002caf:	48 8d 04 0b          	lea    (%rbx,%rcx,1),%rax
 1002cb3:	48 ff 80 20 04 00 00 	incq   0x420(%rax)
		runtime·MCache_Free(c, v, sizeclass, size);
 1002cba:	48 89 1c 24          	mov    %rbx,(%rsp)
 1002cbe:	48 8b 44 24 60       	mov    0x60(%rsp),%rax
 1002cc3:	48 89 44 24 08       	mov    %rax,0x8(%rsp)
 1002cc8:	89 6c 24 10          	mov    %ebp,0x10(%rsp)
 1002ccc:	48 8b 44 24 30       	mov    0x30(%rsp),%rax
 1002cd1:	48 89 44 24 18       	mov    %rax,0x18(%rsp)
 1002cd6:	e8 19 08 00 00       	callq  10034f4 <runtime.MCache_Free>
	}
	c->local_alloc -= size;
 1002cdb:	e9 48 ff ff ff       	jmpq   1002c28 <runtime.free+0x15a>

0000000001002ce0 <runtime.mlookup>:
		runtime·MProf_Free(v, size);
	m->mallocing = 0;
}

int32
runtime·mlookup(void *v, byte **base, uintptr *size, MSpan **sp)
 1002ce0:	64 48 8b 0c 25 f0 ff 	mov    %fs:0xfffffffffffffff0,%rcx
 1002ce7:	ff ff 
 1002ce9:	48 3b 21             	cmp    (%rcx),%rsp
 1002cec:	77 05                	ja     1002cf3 <runtime.mlookup+0x13>
 1002cee:	e8 74 ec ff ff       	callq  1001967 <runtime.morestack32>
 1002cf3:	48 83 ec 48          	sub    $0x48,%rsp
{
	uintptr n, i;
	byte *p;
	MSpan *s;

	m->mcache->local_nlookup++;
 1002cf7:	64 48 8b 04 25 f8 ff 	mov    %fs:0xfffffffffffffff8,%rax
 1002cfe:	ff ff 
 1002d00:	48 8b 80 d8 00 00 00 	mov    0xd8(%rax),%rax
 1002d07:	48 ff 80 08 04 00 00 	incq   0x408(%rax)
	s = runtime·MHeap_LookupMaybe(&runtime·mheap, v);
 1002d0e:	b9 80 a0 03 01       	mov    $0x103a080,%ecx
 1002d13:	48 89 0c 24          	mov    %rcx,(%rsp)
 1002d17:	48 8b 4c 24 50       	mov    0x50(%rsp),%rcx
 1002d1c:	48 89 4c 24 08       	mov    %rcx,0x8(%rsp)
 1002d21:	e8 13 37 00 00       	callq  1006439 <runtime.MHeap_LookupMaybe>
 1002d26:	48 8b 4c 24 68       	mov    0x68(%rsp),%rcx
 1002d2b:	4c 8b 44 24 50       	mov    0x50(%rsp),%r8
 1002d30:	48 8b 7c 24 58       	mov    0x58(%rsp),%rdi
 1002d35:	48 8b 74 24 60       	mov    0x60(%rsp),%rsi
 1002d3a:	48 89 c2             	mov    %rax,%rdx
	if(sp)
 1002d3d:	48 83 f9 00          	cmp    $0x0,%rcx
 1002d41:	74 03                	je     1002d46 <runtime.mlookup+0x66>
		*sp = s;
 1002d43:	48 89 11             	mov    %rdx,(%rcx)
	if(s == nil) {
 1002d46:	48 83 fa 00          	cmp    $0x0,%rdx
 1002d4a:	75 40                	jne    1002d8c <runtime.mlookup+0xac>
		runtime·checkfreed(v, 1);
 1002d4c:	4c 89 04 24          	mov    %r8,(%rsp)
 1002d50:	48 c7 c0 01 00 00 00 	mov    $0x1,%rax
 1002d57:	48 89 44 24 08       	mov    %rax,0x8(%rsp)
 1002d5c:	e8 6f 2a 00 00       	callq  10057d0 <runtime.checkfreed>
 1002d61:	48 8b 54 24 58       	mov    0x58(%rsp),%rdx
 1002d66:	48 8b 4c 24 60       	mov    0x60(%rsp),%rcx
		if(base)
 1002d6b:	48 83 fa 00          	cmp    $0x0,%rdx
 1002d6f:	74 07                	je     1002d78 <runtime.mlookup+0x98>
			*base = nil;
 1002d71:	48 c7 02 00 00 00 00 	movq   $0x0,(%rdx)
		if(size)
 1002d78:	48 83 f9 00          	cmp    $0x0,%rcx
 1002d7c:	74 07                	je     1002d85 <runtime.mlookup+0xa5>
			*size = 0;
 1002d7e:	48 c7 01 00 00 00 00 	movq   $0x0,(%rcx)
		return 0;
 1002d85:	31 c0                	xor    %eax,%eax
 1002d87:	48 83 c4 48          	add    $0x48,%rsp
 1002d8b:	c3                   	retq   
	}

	p = (byte*)((uintptr)s->start<<PageShift);
 1002d8c:	48 8b 42 18          	mov    0x18(%rdx),%rax
 1002d90:	48 c1 e0 0c          	shl    $0xc,%rax
 1002d94:	48 89 c5             	mov    %rax,%rbp
	if(s->sizeclass == 0) {
 1002d97:	8b 42 34             	mov    0x34(%rdx),%eax
 1002d9a:	83 f8 00             	cmp    $0x0,%eax
 1002d9d:	75 24                	jne    1002dc3 <runtime.mlookup+0xe3>
		// Large object.
		if(base)
 1002d9f:	48 83 ff 00          	cmp    $0x0,%rdi
 1002da3:	74 03                	je     1002da8 <runtime.mlookup+0xc8>
			*base = p;
 1002da5:	48 89 2f             	mov    %rbp,(%rdi)
		if(size)
 1002da8:	48 83 fe 00          	cmp    $0x0,%rsi
 1002dac:	74 0b                	je     1002db9 <runtime.mlookup+0xd9>
			*size = s->npages<<PageShift;
 1002dae:	48 8b 42 20          	mov    0x20(%rdx),%rax
 1002db2:	48 c1 e0 0c          	shl    $0xc,%rax
 1002db6:	48 89 06             	mov    %rax,(%rsi)
		return 1;
 1002db9:	b8 01 00 00 00       	mov    $0x1,%eax
 1002dbe:	48 83 c4 48          	add    $0x48,%rsp
 1002dc2:	c3                   	retq   
	}

	if((byte*)v >= (byte*)s->limit) {
 1002dc3:	48 8b 42 40          	mov    0x40(%rdx),%rax
 1002dc7:	49 39 c0             	cmp    %rax,%r8
 1002dca:	72 07                	jb     1002dd3 <runtime.mlookup+0xf3>
		// pointers past the last block do not count as pointers.
		return 0;
 1002dcc:	31 c0                	xor    %eax,%eax
 1002dce:	48 83 c4 48          	add    $0x48,%rsp
 1002dd2:	c3                   	retq   
	}

	n = runtime·class_to_size[s->sizeclass];
 1002dd3:	8b 4a 34             	mov    0x34(%rdx),%ecx
 1002dd6:	8b 1c 8d d8 51 02 01 	mov    0x10251d8(,%rcx,4),%ebx
 1002ddd:	48 63 db             	movslq %ebx,%rbx
	if(base) {
 1002de0:	48 83 ff 00          	cmp    $0x0,%rdi
 1002de4:	74 25                	je     1002e0b <runtime.mlookup+0x12b>
		i = ((byte*)v - p)/n;
 1002de6:	4c 89 c0             	mov    %r8,%rax
 1002de9:	48 29 e8             	sub    %rbp,%rax
 1002dec:	31 d2                	xor    %edx,%edx
 1002dee:	48 f7 f3             	div    %rbx
		*base = p + i*n;
 1002df1:	48 89 44 24 18       	mov    %rax,0x18(%rsp)
 1002df6:	48 f7 e3             	mul    %rbx
 1002df9:	48 89 c1             	mov    %rax,%rcx
 1002dfc:	48 8b 44 24 18       	mov    0x18(%rsp),%rax
 1002e01:	48 89 ea             	mov    %rbp,%rdx
 1002e04:	48 8d 04 0a          	lea    (%rdx,%rcx,1),%rax
 1002e08:	48 89 07             	mov    %rax,(%rdi)
	}
	if(size)
 1002e0b:	48 83 fe 00          	cmp    $0x0,%rsi
 1002e0f:	74 03                	je     1002e14 <runtime.mlookup+0x134>
		*size = n;
 1002e11:	48 89 1e             	mov    %rbx,(%rsi)

	return 1;
 1002e14:	b8 01 00 00 00       	mov    $0x1,%eax
 1002e19:	48 83 c4 48          	add    $0x48,%rsp
 1002e1d:	c3                   	retq   

0000000001002e1e <runtime.allocmcache>:
}

MCache*
runtime·allocmcache(void)
 1002e1e:	64 48 8b 0c 25 f0 ff 	mov    %fs:0xfffffffffffffff0,%rcx
 1002e25:	ff ff 
 1002e27:	48 3b 21             	cmp    (%rcx),%rsp
 1002e2a:	77 05                	ja     1002e31 <runtime.allocmcache+0x13>
 1002e2c:	e8 c2 ea ff ff       	callq  10018f3 <runtime.morestack00>
 1002e31:	48 83 ec 20          	sub    $0x20,%rsp
{
	MCache *c;

	runtime·lock(&runtime·mheap);
 1002e35:	b8 80 a0 03 01       	mov    $0x103a080,%eax
 1002e3a:	48 89 04 24          	mov    %rax,(%rsp)
 1002e3e:	e8 ed 9f 00 00       	callq  100ce30 <runtime.lock>
	c = runtime·FixAlloc_Alloc(&runtime·mheap.cachealloc);
 1002e43:	b9 50 11 04 03       	mov    $0x3041150,%ecx
 1002e48:	48 89 0c 24          	mov    %rcx,(%rsp)
 1002e4c:	e8 3a 13 00 00       	callq  100418b <runtime.FixAlloc_Alloc>
 1002e51:	48 89 44 24 18       	mov    %rax,0x18(%rsp)
	mstats.mcache_inuse = runtime·mheap.cachealloc.inuse;
 1002e56:	48 8b 04 25 88 11 04 	mov    0x3041188,%rax
 1002e5d:	03 
 1002e5e:	48 89 04 25 d0 62 02 	mov    %rax,0x10262d0
 1002e65:	01 
	mstats.mcache_sys = runtime·mheap.cachealloc.sys;
 1002e66:	48 8b 04 25 90 11 04 	mov    0x3041190,%rax
 1002e6d:	03 
 1002e6e:	48 89 04 25 d8 62 02 	mov    %rax,0x10262d8
 1002e75:	01 
	runtime·unlock(&runtime·mheap);
 1002e76:	b8 80 a0 03 01       	mov    $0x103a080,%eax
 1002e7b:	48 89 04 24          	mov    %rax,(%rsp)
 1002e7f:	e8 fe 9f 00 00       	callq  100ce82 <runtime.unlock>
	return c;
 1002e84:	48 8b 44 24 18       	mov    0x18(%rsp),%rax
 1002e89:	48 83 c4 20          	add    $0x20,%rsp
 1002e8d:	c3                   	retq   

0000000001002e8e <runtime.purgecachedstats>:
}

void
runtime·purgecachedstats(M* m)
 1002e8e:	64 48 8b 0c 25 f0 ff 	mov    %fs:0xfffffffffffffff0,%rcx
 1002e95:	ff ff 
 1002e97:	48 3b 21             	cmp    (%rcx),%rsp
 1002e9a:	77 05                	ja     1002ea1 <runtime.purgecachedstats+0x13>
 1002e9c:	e8 ab ea ff ff       	callq  100194c <runtime.morestack8>
 1002ea1:	48 83 ec 10          	sub    $0x10,%rsp
{
	MCache *c;

	// Protected by either heap or GC lock.
	c = m->mcache;
 1002ea5:	48 8b 44 24 18       	mov    0x18(%rsp),%rax
 1002eaa:	48 8b 88 d8 00 00 00 	mov    0xd8(%rax),%rcx
	mstats.heap_alloc += c->local_cachealloc;
 1002eb1:	48 8b 81 d8 03 00 00 	mov    0x3d8(%rcx),%rax
 1002eb8:	48 01 04 25 88 62 02 	add    %rax,0x1026288
 1002ebf:	01 
	c->local_cachealloc = 0;
 1002ec0:	48 c7 81 d8 03 00 00 	movq   $0x0,0x3d8(%rcx)
 1002ec7:	00 00 00 00 
	mstats.heap_objects += c->local_objects;
 1002ecb:	48 8b 81 e0 03 00 00 	mov    0x3e0(%rcx),%rax
 1002ed2:	48 01 04 25 a8 62 02 	add    %rax,0x10262a8
 1002ed9:	01 
	c->local_objects = 0;
 1002eda:	48 c7 81 e0 03 00 00 	movq   $0x0,0x3e0(%rcx)
 1002ee1:	00 00 00 00 
	mstats.nmalloc += c->local_nmalloc;
 1002ee5:	48 8b 81 f8 03 00 00 	mov    0x3f8(%rcx),%rax
 1002eec:	48 01 04 25 78 62 02 	add    %rax,0x1026278
 1002ef3:	01 
	c->local_nmalloc = 0;
 1002ef4:	48 c7 81 f8 03 00 00 	movq   $0x0,0x3f8(%rcx)
 1002efb:	00 00 00 00 
	mstats.nfree += c->local_nfree;
 1002eff:	48 8b 81 00 04 00 00 	mov    0x400(%rcx),%rax
 1002f06:	48 01 04 25 80 62 02 	add    %rax,0x1026280
 1002f0d:	01 
	c->local_nfree = 0;
 1002f0e:	48 c7 81 00 04 00 00 	movq   $0x0,0x400(%rcx)
 1002f15:	00 00 00 00 
	mstats.nlookup += c->local_nlookup;
 1002f19:	48 8b 81 08 04 00 00 	mov    0x408(%rcx),%rax
 1002f20:	48 01 04 25 70 62 02 	add    %rax,0x1026270
 1002f27:	01 
	c->local_nlookup = 0;
 1002f28:	48 c7 81 08 04 00 00 	movq   $0x0,0x408(%rcx)
 1002f2f:	00 00 00 00 
	mstats.alloc += c->local_alloc;
 1002f33:	48 8b 81 e8 03 00 00 	mov    0x3e8(%rcx),%rax
 1002f3a:	48 01 04 25 58 62 02 	add    %rax,0x1026258
 1002f41:	01 
	c->local_alloc= 0;
 1002f42:	48 c7 81 e8 03 00 00 	movq   $0x0,0x3e8(%rcx)
 1002f49:	00 00 00 00 
	mstats.total_alloc += c->local_total_alloc;
 1002f4d:	48 8b 81 f0 03 00 00 	mov    0x3f0(%rcx),%rax
 1002f54:	48 01 04 25 60 62 02 	add    %rax,0x1026260
 1002f5b:	01 
	c->local_total_alloc= 0;
 1002f5c:	48 c7 81 f0 03 00 00 	movq   $0x0,0x3f0(%rcx)
 1002f63:	00 00 00 00 
 1002f67:	48 83 c4 10          	add    $0x10,%rsp
 1002f6b:	c3                   	retq   

0000000001002f6c <runtime.mallocinit>:
uintptr runtime·sizeof_C_MStats = sizeof(MStats);

#define MaxArena32 (2U<<30)

void
runtime·mallocinit(void)
 1002f6c:	64 48 8b 0c 25 f0 ff 	mov    %fs:0xfffffffffffffff0,%rcx
 1002f73:	ff ff 
 1002f75:	48 3b 21             	cmp    (%rcx),%rsp
 1002f78:	77 05                	ja     1002f7f <runtime.mallocinit+0x13>
 1002f7a:	e8 74 e9 ff ff       	callq  10018f3 <runtime.morestack00>
 1002f7f:	48 83 ec 38          	sub    $0x38,%rsp
{
	byte *p;
	uintptr arena_size, bitmap_size;
	extern byte end[];

	runtime·InitSizes();
 1002f83:	e8 9f 40 00 00       	callq  1007027 <runtime.InitSizes>
		// that matched a memory address.
		//
		// Actually we reserve 17 GB (because the bitmap ends up being 1 GB)
		// but it hardly matters: fc is not valid UTF-8 either, and we have to
		// allocate 15 GB before we get that far.
		arena_size = 16LL<<30;
 1002f88:	48 ba 00 00 00 00 04 	movabs $0x400000000,%rdx
 1002f8f:	00 00 00 
		bitmap_size = arena_size / (sizeof(void*)*8/4);
 1002f92:	48 89 d0             	mov    %rdx,%rax
 1002f95:	48 c1 e8 04          	shr    $0x4,%rax
		p = runtime·SysReserve((void*)(0x00f8ULL<<32), bitmap_size + arena_size);
 1002f99:	48 b9 00 00 00 00 f8 	movabs $0xf800000000,%rcx
 1002fa0:	00 00 00 
 1002fa3:	48 89 0c 24          	mov    %rcx,(%rsp)
 1002fa7:	48 89 c1             	mov    %rax,%rcx
 1002faa:	48 89 44 24 20       	mov    %rax,0x20(%rsp)
 1002faf:	48 01 d1             	add    %rdx,%rcx
 1002fb2:	48 89 54 24 28       	mov    %rdx,0x28(%rsp)
 1002fb7:	48 89 4c 24 08       	mov    %rcx,0x8(%rsp)
 1002fbc:	e8 b1 0d 00 00       	callq  1003d72 <runtime.SysReserve>
 1002fc1:	48 89 c2             	mov    %rax,%rdx
		if(p == nil)
 1002fc4:	48 83 f8 00          	cmp    $0x0,%rax
 1002fc8:	48 89 44 24 30       	mov    %rax,0x30(%rsp)
 1002fcd:	75 13                	jne    1002fe2 <runtime.mallocinit+0x76>
			runtime·throw("runtime: cannot reserve arena virtual address space");
 1002fcf:	b8 b1 43 02 01       	mov    $0x10243b1,%eax
 1002fd4:	48 89 04 24          	mov    %rax,(%rsp)
 1002fd8:	e8 5c 6d 00 00       	callq  1009d39 <runtime.throw>
 1002fdd:	48 8b 54 24 30       	mov    0x30(%rsp),%rdx
		// Run with what we get back.
		p = runtime·SysReserve(end, bitmap_size + arena_size);
		if(p == nil)
			runtime·throw("runtime: cannot reserve arena virtual address space");
	}
	if((uintptr)p & (((uintptr)1<<PageShift)-1))
 1002fe2:	48 89 d0             	mov    %rdx,%rax
 1002fe5:	48 25 ff 0f 00 00    	and    $0xfff,%rax
 1002feb:	48 83 f8 00          	cmp    $0x0,%rax
 1002fef:	74 13                	je     1003004 <runtime.mallocinit+0x98>
		runtime·throw("runtime: SysReserve returned unaligned address");
 1002ff1:	b8 e5 43 02 01       	mov    $0x10243e5,%eax
 1002ff6:	48 89 04 24          	mov    %rax,(%rsp)
 1002ffa:	e8 3a 6d 00 00       	callq  1009d39 <runtime.throw>
 1002fff:	48 8b 54 24 30       	mov    0x30(%rsp),%rdx

	runtime·mheap.bitmap = p;
 1003004:	48 89 14 25 d8 e8 03 	mov    %rdx,0x303e8d8
 100300b:	03 
	runtime·mheap.arena_start = p + bitmap_size;
 100300c:	48 89 d1             	mov    %rdx,%rcx
 100300f:	48 8b 54 24 20       	mov    0x20(%rsp),%rdx
 1003014:	48 8d 04 0a          	lea    (%rdx,%rcx,1),%rax
 1003018:	48 89 04 25 e8 e8 03 	mov    %rax,0x303e8e8
 100301f:	03 
	runtime·mheap.arena_used = runtime·mheap.arena_start;
 1003020:	48 8b 04 25 e8 e8 03 	mov    0x303e8e8,%rax
 1003027:	03 
 1003028:	48 89 04 25 f0 e8 03 	mov    %rax,0x303e8f0
 100302f:	03 
	runtime·mheap.arena_end = runtime·mheap.arena_start + arena_size;
 1003030:	48 8b 0c 25 e8 e8 03 	mov    0x303e8e8,%rcx
 1003037:	03 
 1003038:	48 8b 54 24 28       	mov    0x28(%rsp),%rdx
 100303d:	48 8d 04 0a          	lea    (%rdx,%rcx,1),%rax
 1003041:	48 89 04 25 f8 e8 03 	mov    %rax,0x303e8f8
 1003048:	03 

	// Initialize the rest of the allocator.	
	runtime·MHeap_Init(&runtime·mheap, runtime·SysAlloc);
 1003049:	b8 80 a0 03 01       	mov    $0x103a080,%eax
 100304e:	48 89 04 24          	mov    %rax,(%rsp)
 1003052:	b8 99 3c 00 01       	mov    $0x1003c99,%eax
 1003057:	48 89 44 24 08       	mov    %rax,0x8(%rsp)
 100305c:	e8 6e 2c 00 00       	callq  1005ccf <runtime.MHeap_Init>
	m->mcache = runtime·allocmcache();
 1003061:	e8 b8 fd ff ff       	callq  1002e1e <runtime.allocmcache>
 1003066:	64 48 8b 0c 25 f8 ff 	mov    %fs:0xfffffffffffffff8,%rcx
 100306d:	ff ff 
 100306f:	48 89 81 d8 00 00 00 	mov    %rax,0xd8(%rcx)

	// See if it works.
	runtime·free(runtime·malloc(1));
 1003076:	48 c7 c1 01 00 00 00 	mov    $0x1,%rcx
 100307d:	48 89 0c 24          	mov    %rcx,(%rsp)
 1003081:	e8 05 fa ff ff       	callq  1002a8b <runtime.malloc>
 1003086:	48 89 44 24 10       	mov    %rax,0x10(%rsp)
 100308b:	48 8b 44 24 10       	mov    0x10(%rsp),%rax
 1003090:	48 89 04 24          	mov    %rax,(%rsp)
 1003094:	e8 35 fa ff ff       	callq  1002ace <runtime.free>
 1003099:	48 83 c4 38          	add    $0x38,%rsp
 100309d:	c3                   	retq   

000000000100309e <runtime.MHeap_SysAlloc>:
}

void*
runtime·MHeap_SysAlloc(MHeap *h, uintptr n)
 100309e:	64 48 8b 0c 25 f0 ff 	mov    %fs:0xfffffffffffffff0,%rcx
 10030a5:	ff ff 
 10030a7:	48 3b 21             	cmp    (%rcx),%rsp
 10030aa:	77 05                	ja     10030b1 <runtime.MHeap_SysAlloc+0x13>
 10030ac:	e8 a4 e8 ff ff       	callq  1001955 <runtime.morestack16>
 10030b1:	48 83 ec 28          	sub    $0x28,%rsp
 10030b5:	48 8b 5c 24 38       	mov    0x38(%rsp),%rbx
 10030ba:	48 8b 54 24 30       	mov    0x30(%rsp),%rdx
{
	byte *p;

	if(n <= h->arena_end - h->arena_used) {
 10030bf:	48 89 d0             	mov    %rdx,%rax
 10030c2:	48 05 78 48 00 02    	add    $0x2004878,%rax
 10030c8:	48 8b 00             	mov    (%rax),%rax
 10030cb:	48 89 d1             	mov    %rdx,%rcx
 10030ce:	48 81 c1 70 48 00 02 	add    $0x2004870,%rcx
 10030d5:	48 8b 09             	mov    (%rcx),%rcx
 10030d8:	48 29 c8             	sub    %rcx,%rax
 10030db:	48 39 c3             	cmp    %rax,%rbx
 10030de:	77 48                	ja     1003128 <runtime.MHeap_SysAlloc+0x8a>
		// Keep taking from our reservation.
		p = h->arena_used;
 10030e0:	48 89 d0             	mov    %rdx,%rax
 10030e3:	48 05 70 48 00 02    	add    $0x2004870,%rax
 10030e9:	48 8b 08             	mov    (%rax),%rcx
		runtime·SysMap(p, n);
 10030ec:	48 89 4c 24 20       	mov    %rcx,0x20(%rsp)
 10030f1:	48 89 0c 24          	mov    %rcx,(%rsp)
 10030f5:	48 89 5c 24 08       	mov    %rbx,0x8(%rsp)
 10030fa:	e8 94 0c 00 00       	callq  1003d93 <runtime.SysMap>
 10030ff:	48 8b 54 24 30       	mov    0x30(%rsp),%rdx
		h->arena_used += n;
 1003104:	48 89 d0             	mov    %rdx,%rax
 1003107:	48 05 70 48 00 02    	add    $0x2004870,%rax
 100310d:	48 8b 4c 24 38       	mov    0x38(%rsp),%rcx
 1003112:	48 01 08             	add    %rcx,(%rax)
		runtime·MHeap_MapBits(h);
 1003115:	48 89 14 24          	mov    %rdx,(%rsp)
 1003119:	e8 c0 2a 00 00       	callq  1005bde <runtime.MHeap_MapBits>
		return p;
 100311e:	48 8b 44 24 20       	mov    0x20(%rsp),%rax
 1003123:	48 83 c4 28          	add    $0x28,%rsp
 1003127:	c3                   	retq   
	}
	
	// On 64-bit, our reservation is all we have.
	if(sizeof(void*) == 8)
		return nil;
 1003128:	48 31 c0             	xor    %rax,%rax
 100312b:	48 83 c4 28          	add    $0x28,%rsp
 100312f:	c3                   	retq   

0000000001003130 <runtime.mal>:
}

// Runtime stubs.

void*
runtime·mal(uintptr n)
 1003130:	64 48 8b 0c 25 f0 ff 	mov    %fs:0xfffffffffffffff0,%rcx
 1003137:	ff ff 
 1003139:	48 3b 21             	cmp    (%rcx),%rsp
 100313c:	77 05                	ja     1003143 <runtime.mal+0x13>
 100313e:	e8 09 e8 ff ff       	callq  100194c <runtime.morestack8>
 1003143:	48 83 ec 20          	sub    $0x20,%rsp
{
	return runtime·mallocgc(n, 0, 1, 1);
 1003147:	48 8b 4c 24 28       	mov    0x28(%rsp),%rcx
 100314c:	48 89 0c 24          	mov    %rcx,(%rsp)
 1003150:	c7 44 24 08 00 00 00 	movl   $0x0,0x8(%rsp)
 1003157:	00 
 1003158:	b9 01 00 00 00       	mov    $0x1,%ecx
 100315d:	89 4c 24 0c          	mov    %ecx,0xc(%rsp)
 1003161:	b9 01 00 00 00       	mov    $0x1,%ecx
 1003166:	89 4c 24 10          	mov    %ecx,0x10(%rsp)
 100316a:	e8 98 f5 ff ff       	callq  1002707 <runtime.mallocgc>
 100316f:	48 83 c4 20          	add    $0x20,%rsp
 1003173:	c3                   	retq   

0000000001003174 <runtime.new>:
}

func new(n uint32) (ret *uint8) {
 1003174:	64 48 8b 0c 25 f0 ff 	mov    %fs:0xfffffffffffffff0,%rcx
 100317b:	ff ff 
 100317d:	48 3b 21             	cmp    (%rcx),%rsp
 1003180:	77 05                	ja     1003187 <runtime.new+0x13>
 1003182:	e8 ce e7 ff ff       	callq  1001955 <runtime.morestack16>
 1003187:	48 83 ec 10          	sub    $0x10,%rsp
	ret = runtime·mal(n);
 100318b:	8b 4c 24 18          	mov    0x18(%rsp),%ecx
 100318f:	48 89 0c 24          	mov    %rcx,(%rsp)
 1003193:	e8 98 ff ff ff       	callq  1003130 <runtime.mal>
 1003198:	48 89 44 24 20       	mov    %rax,0x20(%rsp)
}
 100319d:	48 83 c4 10          	add    $0x10,%rsp
 10031a1:	c3                   	retq   

00000000010031a2 <runtime.stackalloc>:

void*
runtime·stackalloc(uint32 n)
 10031a2:	64 48 8b 0c 25 f0 ff 	mov    %fs:0xfffffffffffffff0,%rcx
 10031a9:	ff ff 
 10031ab:	48 3b 21             	cmp    (%rcx),%rsp
 10031ae:	77 05                	ja     10031b5 <runtime.stackalloc+0x13>
 10031b0:	e8 97 e7 ff ff       	callq  100194c <runtime.morestack8>
 10031b5:	48 83 ec 20          	sub    $0x20,%rsp
 10031b9:	8b 54 24 28          	mov    0x28(%rsp),%edx
{
	// Stackalloc must be called on scheduler stack, so that we
	// never try to grow the stack during the code that stackalloc runs.
	// Doing so would cause a deadlock (issue 1547).
	if(g != m->g0)
 10031bd:	64 48 8b 04 25 f0 ff 	mov    %fs:0xfffffffffffffff0,%rax
 10031c4:	ff ff 
 10031c6:	64 48 8b 0c 25 f8 ff 	mov    %fs:0xfffffffffffffff8,%rcx
 10031cd:	ff ff 
 10031cf:	48 8b 09             	mov    (%rcx),%rcx
 10031d2:	48 39 c8             	cmp    %rcx,%rax
 10031d5:	74 12                	je     10031e9 <runtime.stackalloc+0x47>
		runtime·throw("stackalloc not on scheduler stack");
 10031d7:	b8 49 44 02 01       	mov    $0x1024449,%eax
 10031dc:	48 89 04 24          	mov    %rax,(%rsp)
 10031e0:	e8 54 6b 00 00       	callq  1009d39 <runtime.throw>
 10031e5:	8b 54 24 28          	mov    0x28(%rsp),%edx
	// we have to do something else to avoid deadlock.
	// In that case, we fall back on a fixed-size free-list
	// allocator, assuming that inside malloc all the stack
	// frames are small, so that all the stack allocations
	// will be a single size, the minimum (right now, 5k).
	if(m->mallocing || m->gcing || n == FixedStack) {
 10031e9:	64 48 8b 04 25 f8 ff 	mov    %fs:0xfffffffffffffff8,%rax
 10031f0:	ff ff 
 10031f2:	8b 40 7c             	mov    0x7c(%rax),%eax
 10031f5:	83 f8 00             	cmp    $0x0,%eax
 10031f8:	75 14                	jne    100320e <runtime.stackalloc+0x6c>
 10031fa:	64 48 8b 04 25 f8 ff 	mov    %fs:0xfffffffffffffff8,%rax
 1003201:	ff ff 
 1003203:	8b 80 80 00 00 00    	mov    0x80(%rax),%eax
 1003209:	83 f8 00             	cmp    $0x0,%eax
 100320c:	74 4f                	je     100325d <runtime.stackalloc+0xbb>
		if(n != FixedStack) {
 100320e:	81 fa 00 10 00 00    	cmp    $0x1000,%edx
 1003214:	74 29                	je     100323f <runtime.stackalloc+0x9d>
			runtime·printf("stackalloc: in malloc, size=%d want %d", FixedStack, n);
 1003216:	b8 6b 44 02 01       	mov    $0x102446b,%eax
 100321b:	48 89 04 24          	mov    %rax,(%rsp)
 100321f:	b8 00 10 00 00       	mov    $0x1000,%eax
 1003224:	89 44 24 08          	mov    %eax,0x8(%rsp)
 1003228:	89 54 24 0c          	mov    %edx,0xc(%rsp)
 100322c:	e8 0d 41 00 00       	callq  100733e <runtime.printf>
			runtime·throw("stackalloc");
 1003231:	b8 93 44 02 01       	mov    $0x1024493,%eax
 1003236:	48 89 04 24          	mov    %rax,(%rsp)
 100323a:	e8 fa 6a 00 00       	callq  1009d39 <runtime.throw>
		}
		return runtime·FixAlloc_Alloc(m->stackalloc);
 100323f:	64 48 8b 0c 25 f8 ff 	mov    %fs:0xfffffffffffffff8,%rcx
 1003246:	ff ff 
 1003248:	48 8b 89 e0 00 00 00 	mov    0xe0(%rcx),%rcx
 100324f:	48 89 0c 24          	mov    %rcx,(%rsp)
 1003253:	e8 33 0f 00 00       	callq  100418b <runtime.FixAlloc_Alloc>
 1003258:	48 83 c4 20          	add    $0x20,%rsp
 100325c:	c3                   	retq   
	// we have to do something else to avoid deadlock.
	// In that case, we fall back on a fixed-size free-list
	// allocator, assuming that inside malloc all the stack
	// frames are small, so that all the stack allocations
	// will be a single size, the minimum (right now, 5k).
	if(m->mallocing || m->gcing || n == FixedStack) {
 100325d:	81 fa 00 10 00 00    	cmp    $0x1000,%edx
 1003263:	74 a9                	je     100320e <runtime.stackalloc+0x6c>
			runtime·printf("stackalloc: in malloc, size=%d want %d", FixedStack, n);
			runtime·throw("stackalloc");
		}
		return runtime·FixAlloc_Alloc(m->stackalloc);
	}
	return runtime·mallocgc(n, FlagNoProfiling|FlagNoGC, 0, 0);
 1003265:	48 89 14 24          	mov    %rdx,(%rsp)
 1003269:	b9 06 00 00 00       	mov    $0x6,%ecx
 100326e:	89 4c 24 08          	mov    %ecx,0x8(%rsp)
 1003272:	c7 44 24 0c 00 00 00 	movl   $0x0,0xc(%rsp)
 1003279:	00 
 100327a:	c7 44 24 10 00 00 00 	movl   $0x0,0x10(%rsp)
 1003281:	00 
 1003282:	e8 80 f4 ff ff       	callq  1002707 <runtime.mallocgc>
 1003287:	48 83 c4 20          	add    $0x20,%rsp
 100328b:	c3                   	retq   

000000000100328c <runtime.stackfree>:
}

void
runtime·stackfree(void *v, uintptr n)
 100328c:	64 48 8b 0c 25 f0 ff 	mov    %fs:0xfffffffffffffff0,%rcx
 1003293:	ff ff 
 1003295:	48 3b 21             	cmp    (%rcx),%rsp
 1003298:	77 05                	ja     100329f <runtime.stackfree+0x13>
 100329a:	e8 b6 e6 ff ff       	callq  1001955 <runtime.morestack16>
 100329f:	48 83 ec 18          	sub    $0x18,%rsp
 10032a3:	48 8b 4c 24 20       	mov    0x20(%rsp),%rcx
{
	if(m->mallocing || m->gcing || n == FixedStack) {
 10032a8:	64 48 8b 04 25 f8 ff 	mov    %fs:0xfffffffffffffff8,%rax
 10032af:	ff ff 
 10032b1:	8b 40 7c             	mov    0x7c(%rax),%eax
 10032b4:	83 f8 00             	cmp    $0x0,%eax
 10032b7:	75 14                	jne    10032cd <runtime.stackfree+0x41>
 10032b9:	64 48 8b 04 25 f8 ff 	mov    %fs:0xfffffffffffffff8,%rax
 10032c0:	ff ff 
 10032c2:	8b 80 80 00 00 00    	mov    0x80(%rax),%eax
 10032c8:	83 f8 00             	cmp    $0x0,%eax
 10032cb:	74 23                	je     10032f0 <runtime.stackfree+0x64>
		runtime·FixAlloc_Free(m->stackalloc, v);
 10032cd:	64 48 8b 04 25 f8 ff 	mov    %fs:0xfffffffffffffff8,%rax
 10032d4:	ff ff 
 10032d6:	48 8b 80 e0 00 00 00 	mov    0xe0(%rax),%rax
 10032dd:	48 89 04 24          	mov    %rax,(%rsp)
 10032e1:	48 89 4c 24 08       	mov    %rcx,0x8(%rsp)
 10032e6:	e8 7e 0f 00 00       	callq  1004269 <runtime.FixAlloc_Free>
		return;
 10032eb:	48 83 c4 18          	add    $0x18,%rsp
 10032ef:	c3                   	retq   
}

void
runtime·stackfree(void *v, uintptr n)
{
	if(m->mallocing || m->gcing || n == FixedStack) {
 10032f0:	48 81 7c 24 28 00 10 	cmpq   $0x1000,0x28(%rsp)
 10032f7:	00 00 
 10032f9:	74 d2                	je     10032cd <runtime.stackfree+0x41>
 10032fb:	48 89 0c 24          	mov    %rcx,(%rsp)
 10032ff:	e8 ca f7 ff ff       	callq  1002ace <runtime.free>
 1003304:	48 83 c4 18          	add    $0x18,%rsp
 1003308:	c3                   	retq   

0000000001003309 <runtime.MCache_Alloc>:

#include "runtime.h"
#include "malloc.h"

void*
runtime·MCache_Alloc(MCache *c, int32 sizeclass, uintptr size, int32 zeroed)
 1003309:	64 48 8b 0c 25 f0 ff 	mov    %fs:0xfffffffffffffff0,%rcx
 1003310:	ff ff 
 1003312:	48 3b 21             	cmp    (%rcx),%rsp
 1003315:	77 05                	ja     100331c <runtime.MCache_Alloc+0x13>
 1003317:	e8 4b e6 ff ff       	callq  1001967 <runtime.morestack32>
 100331c:	48 83 ec 48          	sub    $0x48,%rsp
 1003320:	48 8b 7c 24 50       	mov    0x50(%rsp),%rdi
 1003325:	48 8b 74 24 60       	mov    0x60(%rsp),%rsi
 100332a:	8b 6c 24 58          	mov    0x58(%rsp),%ebp
	MCacheList *l;
	MLink *first, *v;
	int32 n;

	// Allocate from list.
	l = &c->list[sizeclass];
 100332e:	48 63 cd             	movslq %ebp,%rcx
 1003331:	48 c1 e1 04          	shl    $0x4,%rcx
 1003335:	48 8d 04 0f          	lea    (%rdi,%rcx,1),%rax
 1003339:	48 89 c3             	mov    %rax,%rbx
	if(l->list == nil) {
 100333c:	48 89 44 24 40       	mov    %rax,0x40(%rsp)
 1003341:	48 8b 00             	mov    (%rax),%rax
 1003344:	48 83 f8 00          	cmp    $0x0,%rax
 1003348:	0f 85 86 00 00 00    	jne    10033d4 <runtime.MCache_Alloc+0xcb>
		// Replenish using central lists.
		n = runtime·MCentral_AllocList(&runtime·mheap.central[sizeclass],
 100334e:	48 63 d5             	movslq %ebp,%rdx
 1003351:	48 69 d2 a8 00 00 00 	imul   $0xa8,%rdx,%rdx
 1003358:	48 8d 0c 15 00 e9 03 	lea    0x303e900(,%rdx,1),%rcx
 100335f:	03 
 1003360:	48 89 0c 24          	mov    %rcx,(%rsp)
 1003364:	48 63 d5             	movslq %ebp,%rdx
 1003367:	8b 0c 95 d0 52 02 01 	mov    0x10252d0(,%rdx,4),%ecx
 100336e:	89 4c 24 08          	mov    %ecx,0x8(%rsp)
 1003372:	48 8d 4c 24 38       	lea    0x38(%rsp),%rcx
 1003377:	48 89 4c 24 10       	mov    %rcx,0x10(%rsp)
 100337c:	e8 3b 03 00 00       	callq  10036bc <runtime.MCentral_AllocList>
 1003381:	48 8b 7c 24 50       	mov    0x50(%rsp),%rdi
 1003386:	48 8b 74 24 60       	mov    0x60(%rsp),%rsi
 100338b:	48 8b 5c 24 40       	mov    0x40(%rsp),%rbx
 1003390:	89 c5                	mov    %eax,%ebp
			runtime·class_to_transfercount[sizeclass], &first);
		if(n == 0)
 1003392:	83 f8 00             	cmp    $0x0,%eax
 1003395:	89 44 24 2c          	mov    %eax,0x2c(%rsp)
 1003399:	75 21                	jne    10033bc <runtime.MCache_Alloc+0xb3>
			runtime·throw("out of memory");
 100339b:	b8 40 30 02 01       	mov    $0x1023040,%eax
 10033a0:	48 89 04 24          	mov    %rax,(%rsp)
 10033a4:	e8 90 69 00 00       	callq  1009d39 <runtime.throw>
 10033a9:	48 8b 7c 24 50       	mov    0x50(%rsp),%rdi
 10033ae:	48 8b 74 24 60       	mov    0x60(%rsp),%rsi
 10033b3:	8b 6c 24 2c          	mov    0x2c(%rsp),%ebp
 10033b7:	48 8b 5c 24 40       	mov    0x40(%rsp),%rbx
		l->list = first;
 10033bc:	48 8b 4c 24 38       	mov    0x38(%rsp),%rcx
 10033c1:	48 89 0b             	mov    %rcx,(%rbx)
		l->nlist = n;
 10033c4:	89 6b 08             	mov    %ebp,0x8(%rbx)
		c->size += n*size;
 10033c7:	48 63 c5             	movslq %ebp,%rax
 10033ca:	48 f7 e6             	mul    %rsi
 10033cd:	48 01 87 d0 03 00 00 	add    %rax,0x3d0(%rdi)
	}
	v = l->list;
 10033d4:	48 8b 13             	mov    (%rbx),%rdx
	l->list = v->next;
 10033d7:	48 8b 0a             	mov    (%rdx),%rcx
 10033da:	48 89 0b             	mov    %rcx,(%rbx)
	l->nlist--;
 10033dd:	ff 4b 08             	decl   0x8(%rbx)
	if(l->nlist < l->nlistmin)
 10033e0:	8b 43 08             	mov    0x8(%rbx),%eax
 10033e3:	8b 4b 0c             	mov    0xc(%rbx),%ecx
 10033e6:	39 c8                	cmp    %ecx,%eax
 10033e8:	73 06                	jae    10033f0 <runtime.MCache_Alloc+0xe7>
		l->nlistmin = l->nlist;
 10033ea:	8b 4b 08             	mov    0x8(%rbx),%ecx
 10033ed:	89 4b 0c             	mov    %ecx,0xc(%rbx)
	c->size -= size;
 10033f0:	48 29 b7 d0 03 00 00 	sub    %rsi,0x3d0(%rdi)

	// v is zeroed except for the link pointer
	// that we used above; zero that.
	v->next = nil;
 10033f7:	48 c7 02 00 00 00 00 	movq   $0x0,(%rdx)
	if(zeroed) {
 10033fe:	83 7c 24 68 00       	cmpl   $0x0,0x68(%rsp)
 1003403:	74 17                	je     100341c <runtime.MCache_Alloc+0x113>
		// block is zeroed iff second word is zero ...
		if(size > sizeof(uintptr) && ((uintptr*)v)[1] != 0)
 1003405:	48 83 fe 08          	cmp    $0x8,%rsi
 1003409:	76 0a                	jbe    1003415 <runtime.MCache_Alloc+0x10c>
 100340b:	48 8b 42 08          	mov    0x8(%rdx),%rax
 100340f:	48 83 f8 00          	cmp    $0x0,%rax
 1003413:	75 1d                	jne    1003432 <runtime.MCache_Alloc+0x129>
			runtime·memclr((byte*)v, size);
		else {
			// ... except for the link pointer
			// that we used above; zero that.
			v->next = nil;
 1003415:	48 c7 02 00 00 00 00 	movq   $0x0,(%rdx)
		}
	}
	c->local_cachealloc += size;
 100341c:	48 01 b7 d8 03 00 00 	add    %rsi,0x3d8(%rdi)
	c->local_objects++;
 1003423:	48 ff 87 e0 03 00 00 	incq   0x3e0(%rdi)
	return v;
 100342a:	48 89 d0             	mov    %rdx,%rax
 100342d:	48 83 c4 48          	add    $0x48,%rsp
 1003431:	c3                   	retq   
	// that we used above; zero that.
	v->next = nil;
	if(zeroed) {
		// block is zeroed iff second word is zero ...
		if(size > sizeof(uintptr) && ((uintptr*)v)[1] != 0)
			runtime·memclr((byte*)v, size);
 1003432:	48 89 54 24 30       	mov    %rdx,0x30(%rsp)
 1003437:	48 89 14 24          	mov    %rdx,(%rsp)
 100343b:	48 89 74 24 08       	mov    %rsi,0x8(%rsp)
 1003440:	e8 62 e6 ff ff       	callq  1001aa7 <runtime.memclr>
 1003445:	48 8b 7c 24 50       	mov    0x50(%rsp),%rdi
 100344a:	48 8b 74 24 60       	mov    0x60(%rsp),%rsi
 100344f:	48 8b 54 24 30       	mov    0x30(%rsp),%rdx
			// ... except for the link pointer
			// that we used above; zero that.
			v->next = nil;
		}
	}
	c->local_cachealloc += size;
 1003454:	eb c6                	jmp    100341c <runtime.MCache_Alloc+0x113>

0000000001003456 <ReleaseN>:
	return v;
}

// Take n elements off l and return them to the central free list.
static void
ReleaseN(MCache *c, MCacheList *l, int32 n, int32 sizeclass)
 1003456:	64 48 8b 0c 25 f0 ff 	mov    %fs:0xfffffffffffffff0,%rcx
 100345d:	ff ff 
 100345f:	48 3b 21             	cmp    (%rcx),%rsp
 1003462:	77 05                	ja     1003469 <ReleaseN+0x13>
 1003464:	e8 f5 e4 ff ff       	callq  100195e <runtime.morestack24>
 1003469:	48 83 ec 40          	sub    $0x40,%rsp
 100346d:	8b 7c 24 5c          	mov    0x5c(%rsp),%edi
 1003471:	8b 6c 24 58          	mov    0x58(%rsp),%ebp
 1003475:	48 8b 5c 24 50       	mov    0x50(%rsp),%rbx
{
	MLink *first, **lp;
	int32 i;

	// Cut off first n elements.
	first = l->list;
 100347a:	48 8b 33             	mov    (%rbx),%rsi
	lp = &l->list;
 100347d:	48 89 da             	mov    %rbx,%rdx
	for(i=0; i<n; i++)
 1003480:	31 c9                	xor    %ecx,%ecx
 1003482:	39 e9                	cmp    %ebp,%ecx
 1003484:	7d 09                	jge    100348f <ReleaseN+0x39>
		lp = &(*lp)->next;
 1003486:	48 8b 12             	mov    (%rdx),%rdx
	int32 i;

	// Cut off first n elements.
	first = l->list;
	lp = &l->list;
	for(i=0; i<n; i++)
 1003489:	ff c1                	inc    %ecx
 100348b:	39 e9                	cmp    %ebp,%ecx
 100348d:	7c f7                	jl     1003486 <ReleaseN+0x30>
		lp = &(*lp)->next;
	l->list = *lp;
 100348f:	48 8b 0a             	mov    (%rdx),%rcx
 1003492:	48 89 0b             	mov    %rcx,(%rbx)
	*lp = nil;
 1003495:	48 c7 02 00 00 00 00 	movq   $0x0,(%rdx)
	l->nlist -= n;
 100349c:	29 6b 08             	sub    %ebp,0x8(%rbx)
	if(l->nlist < l->nlistmin)
 100349f:	8b 43 08             	mov    0x8(%rbx),%eax
 10034a2:	8b 4b 0c             	mov    0xc(%rbx),%ecx
 10034a5:	39 c8                	cmp    %ecx,%eax
 10034a7:	73 06                	jae    10034af <ReleaseN+0x59>
		l->nlistmin = l->nlist;
 10034a9:	8b 4b 08             	mov    0x8(%rbx),%ecx
 10034ac:	89 4b 0c             	mov    %ecx,0xc(%rbx)
	c->size -= n*runtime·class_to_size[sizeclass];
 10034af:	89 e8                	mov    %ebp,%eax
 10034b1:	48 63 cf             	movslq %edi,%rcx
 10034b4:	0f af 04 8d d8 51 02 	imul   0x10251d8(,%rcx,4),%eax
 10034bb:	01 
 10034bc:	48 63 c0             	movslq %eax,%rax
 10034bf:	48 8b 4c 24 48       	mov    0x48(%rsp),%rcx
 10034c4:	48 29 81 d0 03 00 00 	sub    %rax,0x3d0(%rcx)

	// Return them to central free list.
	runtime·MCentral_FreeList(&runtime·mheap.central[sizeclass], n, first);
 10034cb:	48 63 cf             	movslq %edi,%rcx
 10034ce:	48 69 c9 a8 00 00 00 	imul   $0xa8,%rcx,%rcx
 10034d5:	48 8d 04 0d 00 e9 03 	lea    0x303e900(,%rcx,1),%rax
 10034dc:	03 
 10034dd:	48 89 04 24          	mov    %rax,(%rsp)
 10034e1:	89 6c 24 08          	mov    %ebp,0x8(%rsp)
 10034e5:	48 89 74 24 10       	mov    %rsi,0x10(%rsp)
 10034ea:	e8 52 03 00 00       	callq  1003841 <runtime.MCentral_FreeList>
 10034ef:	48 83 c4 40          	add    $0x40,%rsp
 10034f3:	c3                   	retq   

00000000010034f4 <runtime.MCache_Free>:
}

void
runtime·MCache_Free(MCache *c, void *v, int32 sizeclass, uintptr size)
 10034f4:	64 48 8b 0c 25 f0 ff 	mov    %fs:0xfffffffffffffff0,%rcx
 10034fb:	ff ff 
 10034fd:	48 3b 21             	cmp    (%rcx),%rsp
 1003500:	77 05                	ja     1003507 <runtime.MCache_Free+0x13>
 1003502:	e8 60 e4 ff ff       	callq  1001967 <runtime.morestack32>
 1003507:	48 83 ec 40          	sub    $0x40,%rsp
 100350b:	48 8b 7c 24 60       	mov    0x60(%rsp),%rdi
 1003510:	8b 74 24 58          	mov    0x58(%rsp),%esi
 1003514:	48 8b 6c 24 48       	mov    0x48(%rsp),%rbp
	int32 i, n;
	MCacheList *l;
	MLink *p;

	// Put back on list.
	l = &c->list[sizeclass];
 1003519:	48 63 ce             	movslq %esi,%rcx
 100351c:	48 c1 e1 04          	shl    $0x4,%rcx
 1003520:	48 89 ea             	mov    %rbp,%rdx
 1003523:	48 8d 04 0a          	lea    (%rdx,%rcx,1),%rax
 1003527:	48 89 c2             	mov    %rax,%rdx
	p = v;
 100352a:	48 8b 5c 24 50       	mov    0x50(%rsp),%rbx
	p->next = l->list;
 100352f:	48 8b 08             	mov    (%rax),%rcx
 1003532:	48 89 0b             	mov    %rcx,(%rbx)
	l->list = p;
 1003535:	48 89 18             	mov    %rbx,(%rax)
	l->nlist++;
 1003538:	ff 40 08             	incl   0x8(%rax)
	c->size += size;
 100353b:	48 01 bd d0 03 00 00 	add    %rdi,0x3d0(%rbp)
	c->local_cachealloc -= size;
 1003542:	48 29 bd d8 03 00 00 	sub    %rdi,0x3d8(%rbp)
	c->local_objects--;
 1003549:	48 ff 8d e0 03 00 00 	decq   0x3e0(%rbp)

	if(l->nlist >= MaxMCacheListLen) {
 1003550:	8b 40 08             	mov    0x8(%rax),%eax
 1003553:	3d 00 01 00 00       	cmp    $0x100,%eax
 1003558:	72 25                	jb     100357f <runtime.MCache_Free+0x8b>
		// Release a chunk back.
		ReleaseN(c, l, runtime·class_to_transfercount[sizeclass], sizeclass);
 100355a:	48 89 2c 24          	mov    %rbp,(%rsp)
 100355e:	48 89 54 24 08       	mov    %rdx,0x8(%rsp)
 1003563:	48 63 ce             	movslq %esi,%rcx
 1003566:	8b 04 8d d0 52 02 01 	mov    0x10252d0(,%rcx,4),%eax
 100356d:	89 44 24 10          	mov    %eax,0x10(%rsp)
 1003571:	89 74 24 14          	mov    %esi,0x14(%rsp)
 1003575:	e8 dc fe ff ff       	callq  1003456 <ReleaseN>
 100357a:	48 8b 6c 24 48       	mov    0x48(%rsp),%rbp
	}

	if(c->size >= MaxMCacheSize) {
 100357f:	48 8b 85 d0 03 00 00 	mov    0x3d0(%rbp),%rax
 1003586:	48 3d 00 00 20 00    	cmp    $0x200000,%rax
 100358c:	72 6e                	jb     10035fc <runtime.MCache_Free+0x108>
		// Scavenge.
		for(i=0; i<NumSizeClasses; i++) {
 100358e:	31 db                	xor    %ebx,%ebx
 1003590:	83 fb 3d             	cmp    $0x3d,%ebx
 1003593:	7d 67                	jge    10035fc <runtime.MCache_Free+0x108>
			l = &c->list[i];
 1003595:	48 63 cb             	movslq %ebx,%rcx
 1003598:	48 c1 e1 04          	shl    $0x4,%rcx
 100359c:	48 89 ea             	mov    %rbp,%rdx
 100359f:	48 8d 04 0a          	lea    (%rdx,%rcx,1),%rax
 10035a3:	48 89 c2             	mov    %rax,%rdx
			n = l->nlistmin;
 10035a6:	8b 48 0c             	mov    0xc(%rax),%ecx
			// n is the minimum number of elements we've seen on
			// the list since the last scavenge.  If n > 0, it means that
			// we could have gotten by with n fewer elements
			// without needing to consult the central free list.
			// Move toward that situation by releasing n/2 of them.
			if(n > 0) {
 10035a9:	83 f9 00             	cmp    $0x0,%ecx
 10035ac:	7e 41                	jle    10035ef <runtime.MCache_Free+0xfb>
				if(n > 1)
 10035ae:	83 f9 01             	cmp    $0x1,%ecx
 10035b1:	7e 0f                	jle    10035c2 <runtime.MCache_Free+0xce>
					n /= 2;
 10035b3:	89 c8                	mov    %ecx,%eax
 10035b5:	81 f9 00 00 00 80    	cmp    $0x80000000,%ecx
 10035bb:	83 d8 ff             	sbb    $0xffffffffffffffff,%eax
 10035be:	d1 f8                	sar    %eax
 10035c0:	89 c1                	mov    %eax,%ecx
				ReleaseN(c, l, n, i);
 10035c2:	48 89 2c 24          	mov    %rbp,(%rsp)
 10035c6:	48 89 54 24 30       	mov    %rdx,0x30(%rsp)
 10035cb:	48 89 54 24 08       	mov    %rdx,0x8(%rsp)
 10035d0:	89 4c 24 10          	mov    %ecx,0x10(%rsp)
 10035d4:	89 5c 24 3c          	mov    %ebx,0x3c(%rsp)
 10035d8:	89 5c 24 14          	mov    %ebx,0x14(%rsp)
 10035dc:	e8 75 fe ff ff       	callq  1003456 <ReleaseN>
 10035e1:	48 8b 6c 24 48       	mov    0x48(%rsp),%rbp
 10035e6:	8b 5c 24 3c          	mov    0x3c(%rsp),%ebx
 10035ea:	48 8b 54 24 30       	mov    0x30(%rsp),%rdx
			}
			l->nlistmin = l->nlist;
 10035ef:	8b 4a 08             	mov    0x8(%rdx),%ecx
 10035f2:	89 4a 0c             	mov    %ecx,0xc(%rdx)
		ReleaseN(c, l, runtime·class_to_transfercount[sizeclass], sizeclass);
	}

	if(c->size >= MaxMCacheSize) {
		// Scavenge.
		for(i=0; i<NumSizeClasses; i++) {
 10035f5:	ff c3                	inc    %ebx
 10035f7:	83 fb 3d             	cmp    $0x3d,%ebx
 10035fa:	7c 99                	jl     1003595 <runtime.MCache_Free+0xa1>
			if(n > 0) {
				if(n > 1)
					n /= 2;
				ReleaseN(c, l, n, i);
			}
			l->nlistmin = l->nlist;
 10035fc:	48 83 c4 40          	add    $0x40,%rsp
 1003600:	c3                   	retq   

0000000001003601 <runtime.MCache_ReleaseAll>:
		}
	}
}

void
runtime·MCache_ReleaseAll(MCache *c)
 1003601:	64 48 8b 0c 25 f0 ff 	mov    %fs:0xfffffffffffffff0,%rcx
 1003608:	ff ff 
 100360a:	48 3b 21             	cmp    (%rcx),%rsp
 100360d:	77 05                	ja     1003614 <runtime.MCache_ReleaseAll+0x13>
 100360f:	e8 38 e3 ff ff       	callq  100194c <runtime.morestack8>
 1003614:	48 83 ec 38          	sub    $0x38,%rsp
 1003618:	48 8b 6c 24 40       	mov    0x40(%rsp),%rbp
{
	int32 i;
	MCacheList *l;

	for(i=0; i<NumSizeClasses; i++) {
 100361d:	31 db                	xor    %ebx,%ebx
 100361f:	83 fb 3d             	cmp    $0x3d,%ebx
 1003622:	7d 4c                	jge    1003670 <runtime.MCache_ReleaseAll+0x6f>
		l = &c->list[i];
 1003624:	48 63 cb             	movslq %ebx,%rcx
 1003627:	48 c1 e1 04          	shl    $0x4,%rcx
 100362b:	48 89 ea             	mov    %rbp,%rdx
 100362e:	48 8d 04 0a          	lea    (%rdx,%rcx,1),%rax
		ReleaseN(c, l, l->nlist, i);
 1003632:	48 89 2c 24          	mov    %rbp,(%rsp)
 1003636:	48 89 44 24 08       	mov    %rax,0x8(%rsp)
 100363b:	48 89 44 24 28       	mov    %rax,0x28(%rsp)
 1003640:	8b 40 08             	mov    0x8(%rax),%eax
 1003643:	89 44 24 10          	mov    %eax,0x10(%rsp)
 1003647:	89 5c 24 34          	mov    %ebx,0x34(%rsp)
 100364b:	89 5c 24 14          	mov    %ebx,0x14(%rsp)
 100364f:	e8 02 fe ff ff       	callq  1003456 <ReleaseN>
 1003654:	48 8b 6c 24 40       	mov    0x40(%rsp),%rbp
 1003659:	8b 5c 24 34          	mov    0x34(%rsp),%ebx
		l->nlistmin = 0;
 100365d:	48 8b 44 24 28       	mov    0x28(%rsp),%rax
 1003662:	c7 40 0c 00 00 00 00 	movl   $0x0,0xc(%rax)
runtime·MCache_ReleaseAll(MCache *c)
{
	int32 i;
	MCacheList *l;

	for(i=0; i<NumSizeClasses; i++) {
 1003669:	ff c3                	inc    %ebx
 100366b:	83 fb 3d             	cmp    $0x3d,%ebx
 100366e:	7c b4                	jl     1003624 <runtime.MCache_ReleaseAll+0x23>
 1003670:	48 83 c4 38          	add    $0x38,%rsp
 1003674:	c3                   	retq   

0000000001003675 <runtime.MCentral_Init>:
static void* MCentral_Alloc(MCentral *c);
static void MCentral_Free(MCentral *c, void *v);

// Initialize a single central free list.
void
runtime·MCentral_Init(MCentral *c, int32 sizeclass)
 1003675:	64 48 8b 0c 25 f0 ff 	mov    %fs:0xfffffffffffffff0,%rcx
 100367c:	ff ff 
 100367e:	48 3b 21             	cmp    (%rcx),%rsp
 1003681:	77 05                	ja     1003688 <runtime.MCentral_Init+0x13>
 1003683:	e8 cd e2 ff ff       	callq  1001955 <runtime.morestack16>
 1003688:	48 83 ec 10          	sub    $0x10,%rsp
 100368c:	48 8b 44 24 18       	mov    0x18(%rsp),%rax
{
	c->sizeclass = sizeclass;
 1003691:	8b 4c 24 20          	mov    0x20(%rsp),%ecx
 1003695:	89 48 08             	mov    %ecx,0x8(%rax)
	runtime·MSpanList_Init(&c->nonempty);
 1003698:	48 83 c0 10          	add    $0x10,%rax
 100369c:	48 89 04 24          	mov    %rax,(%rsp)
 10036a0:	e8 ea 31 00 00       	callq  100688f <runtime.MSpanList_Init>
	runtime·MSpanList_Init(&c->empty);
 10036a5:	48 8b 44 24 18       	mov    0x18(%rsp),%rax
 10036aa:	48 83 c0 58          	add    $0x58,%rax
 10036ae:	48 89 04 24          	mov    %rax,(%rsp)
 10036b2:	e8 d8 31 00 00       	callq  100688f <runtime.MSpanList_Init>
 10036b7:	48 83 c4 10          	add    $0x10,%rsp
 10036bb:	c3                   	retq   

00000000010036bc <runtime.MCentral_AllocList>:
// Allocate up to n objects from the central free list.
// Return the number of objects allocated.
// The objects are linked together by their first words.
// On return, *pstart points at the first object and *pend at the last.
int32
runtime·MCentral_AllocList(MCentral *c, int32 n, MLink **pfirst)
 10036bc:	64 48 8b 0c 25 f0 ff 	mov    %fs:0xfffffffffffffff0,%rcx
 10036c3:	ff ff 
 10036c5:	48 3b 21             	cmp    (%rcx),%rsp
 10036c8:	77 05                	ja     10036cf <runtime.MCentral_AllocList+0x13>
 10036ca:	e8 8f e2 ff ff       	callq  100195e <runtime.morestack24>
 10036cf:	48 83 ec 38          	sub    $0x38,%rsp
{
	MLink *first, *last, *v;
	int32 i;

	runtime·lock(c);
 10036d3:	48 8b 44 24 40       	mov    0x40(%rsp),%rax
 10036d8:	48 89 04 24          	mov    %rax,(%rsp)
 10036dc:	e8 4f 97 00 00       	callq  100ce30 <runtime.lock>
	// Replenish central list if empty.
	if(runtime·MSpanList_IsEmpty(&c->nonempty)) {
 10036e1:	48 8b 4c 24 40       	mov    0x40(%rsp),%rcx
 10036e6:	48 83 c1 10          	add    $0x10,%rcx
 10036ea:	48 89 0c 24          	mov    %rcx,(%rsp)
 10036ee:	e8 14 32 00 00       	callq  1006907 <runtime.MSpanList_IsEmpty>
 10036f3:	48 8b 54 24 40       	mov    0x40(%rsp),%rdx
 10036f8:	80 f8 00             	cmp    $0x0,%al
 10036fb:	74 2f                	je     100372c <runtime.MCentral_AllocList+0x70>
		if(!MCentral_Grow(c)) {
 10036fd:	48 89 14 24          	mov    %rdx,(%rsp)
 1003701:	e8 7f 03 00 00       	callq  1003a85 <MCentral_Grow>
 1003706:	48 8b 54 24 40       	mov    0x40(%rsp),%rdx
 100370b:	80 f8 00             	cmp    $0x0,%al
 100370e:	75 1c                	jne    100372c <runtime.MCentral_AllocList+0x70>
			runtime·unlock(c);
 1003710:	48 89 14 24          	mov    %rdx,(%rsp)
 1003714:	e8 69 97 00 00       	callq  100ce82 <runtime.unlock>
			*pfirst = nil;
 1003719:	48 8b 44 24 50       	mov    0x50(%rsp),%rax
 100371e:	48 c7 00 00 00 00 00 	movq   $0x0,(%rax)
			return 0;
 1003725:	31 c0                	xor    %eax,%eax
 1003727:	48 83 c4 38          	add    $0x38,%rsp
 100372b:	c3                   	retq   
		}
	}

	// Copy from list, up to n.
	// First one is guaranteed to work, because we just grew the list.
	first = MCentral_Alloc(c);
 100372c:	48 89 14 24          	mov    %rdx,(%rsp)
 1003730:	e8 79 00 00 00       	callq  10037ae <MCentral_Alloc>
 1003735:	48 8b 6c 24 40       	mov    0x40(%rsp),%rbp
	last = first;
 100373a:	48 89 44 24 30       	mov    %rax,0x30(%rsp)
 100373f:	48 89 c1             	mov    %rax,%rcx
 1003742:	48 89 44 24 28       	mov    %rax,0x28(%rsp)
	for(i=1; i<n && (v = MCentral_Alloc(c)) != nil; i++) {
 1003747:	bb 01 00 00 00       	mov    $0x1,%ebx
 100374c:	89 5c 24 1c          	mov    %ebx,0x1c(%rsp)
 1003750:	3b 5c 24 48          	cmp    0x48(%rsp),%ebx
 1003754:	7d 1d                	jge    1003773 <runtime.MCentral_AllocList+0xb7>
 1003756:	48 89 2c 24          	mov    %rbp,(%rsp)
 100375a:	e8 4f 00 00 00       	callq  10037ae <MCentral_Alloc>
 100375f:	48 8b 6c 24 40       	mov    0x40(%rsp),%rbp
 1003764:	48 8b 4c 24 28       	mov    0x28(%rsp),%rcx
 1003769:	8b 5c 24 1c          	mov    0x1c(%rsp),%ebx
 100376d:	48 83 f8 00          	cmp    $0x0,%rax
 1003771:	75 2c                	jne    100379f <runtime.MCentral_AllocList+0xe3>
		last->next = v;
		last = v;
	}
	last->next = nil;
 1003773:	48 c7 01 00 00 00 00 	movq   $0x0,(%rcx)
	c->nfree -= i;
 100377a:	29 9d a0 00 00 00    	sub    %ebx,0xa0(%rbp)

	runtime·unlock(c);
 1003780:	48 89 2c 24          	mov    %rbp,(%rsp)
 1003784:	e8 f9 96 00 00       	callq  100ce82 <runtime.unlock>
	*pfirst = first;
 1003789:	48 8b 44 24 50       	mov    0x50(%rsp),%rax
 100378e:	48 8b 4c 24 30       	mov    0x30(%rsp),%rcx
 1003793:	48 89 08             	mov    %rcx,(%rax)
	return i;
 1003796:	8b 44 24 1c          	mov    0x1c(%rsp),%eax
 100379a:	48 83 c4 38          	add    $0x38,%rsp
 100379e:	c3                   	retq   
	// Copy from list, up to n.
	// First one is guaranteed to work, because we just grew the list.
	first = MCentral_Alloc(c);
	last = first;
	for(i=1; i<n && (v = MCentral_Alloc(c)) != nil; i++) {
		last->next = v;
 100379f:	48 89 01             	mov    %rax,(%rcx)
		last = v;
 10037a2:	48 89 c1             	mov    %rax,%rcx
 10037a5:	48 89 44 24 28       	mov    %rax,0x28(%rsp)

	// Copy from list, up to n.
	// First one is guaranteed to work, because we just grew the list.
	first = MCentral_Alloc(c);
	last = first;
	for(i=1; i<n && (v = MCentral_Alloc(c)) != nil; i++) {
 10037aa:	ff c3                	inc    %ebx
 10037ac:	eb 9e                	jmp    100374c <runtime.MCentral_AllocList+0x90>

00000000010037ae <MCentral_Alloc>:
	return i;
}

// Helper: allocate one object from the central free list.
static void*
MCentral_Alloc(MCentral *c)
 10037ae:	64 48 8b 0c 25 f0 ff 	mov    %fs:0xfffffffffffffff0,%rcx
 10037b5:	ff ff 
 10037b7:	48 3b 21             	cmp    (%rcx),%rsp
 10037ba:	77 05                	ja     10037c1 <MCentral_Alloc+0x13>
 10037bc:	e8 8b e1 ff ff       	callq  100194c <runtime.morestack8>
 10037c1:	48 83 ec 30          	sub    $0x30,%rsp
{
	MSpan *s;
	MLink *v;

	if(runtime·MSpanList_IsEmpty(&c->nonempty))
 10037c5:	48 8b 4c 24 38       	mov    0x38(%rsp),%rcx
 10037ca:	48 83 c1 10          	add    $0x10,%rcx
 10037ce:	48 89 0c 24          	mov    %rcx,(%rsp)
 10037d2:	e8 30 31 00 00       	callq  1006907 <runtime.MSpanList_IsEmpty>
 10037d7:	80 f8 00             	cmp    $0x0,%al
 10037da:	74 08                	je     10037e4 <MCentral_Alloc+0x36>
		return nil;
 10037dc:	48 31 c0             	xor    %rax,%rax
 10037df:	48 83 c4 30          	add    $0x30,%rsp
 10037e3:	c3                   	retq   
	s = c->nonempty.next;
 10037e4:	48 8b 44 24 38       	mov    0x38(%rsp),%rax
 10037e9:	48 8b 50 10          	mov    0x10(%rax),%rdx
	s->ref++;
 10037ed:	ff 42 30             	incl   0x30(%rdx)
	v = s->freelist;
 10037f0:	48 8b 5a 28          	mov    0x28(%rdx),%rbx
	s->freelist = v->next;
 10037f4:	48 89 5c 24 20       	mov    %rbx,0x20(%rsp)
 10037f9:	48 8b 0b             	mov    (%rbx),%rcx
 10037fc:	48 89 4a 28          	mov    %rcx,0x28(%rdx)
	if(s->freelist == nil) {
 1003800:	48 8b 42 28          	mov    0x28(%rdx),%rax
 1003804:	48 83 f8 00          	cmp    $0x0,%rax
 1003808:	75 2f                	jne    1003839 <MCentral_Alloc+0x8b>
		runtime·MSpanList_Remove(s);
 100380a:	48 89 54 24 28       	mov    %rdx,0x28(%rsp)
 100380f:	48 89 14 24          	mov    %rdx,(%rsp)
 1003813:	e8 9e 30 00 00       	callq  10068b6 <runtime.MSpanList_Remove>
		runtime·MSpanList_Insert(&c->empty, s);
 1003818:	48 8b 44 24 38       	mov    0x38(%rsp),%rax
 100381d:	48 83 c0 58          	add    $0x58,%rax
 1003821:	48 89 04 24          	mov    %rax,(%rsp)
 1003825:	48 8b 44 24 28       	mov    0x28(%rsp),%rax
 100382a:	48 89 44 24 08       	mov    %rax,0x8(%rsp)
 100382f:	e8 fd 30 00 00       	callq  1006931 <runtime.MSpanList_Insert>
 1003834:	48 8b 5c 24 20       	mov    0x20(%rsp),%rbx
	}
	return v;
 1003839:	48 89 d8             	mov    %rbx,%rax
 100383c:	48 83 c4 30          	add    $0x30,%rsp
 1003840:	c3                   	retq   

0000000001003841 <runtime.MCentral_FreeList>:
// Free n objects back into the central free list.
// Return the number of objects allocated.
// The objects are linked together by their first words.
// On return, *pstart points at the first object and *pend at the last.
void
runtime·MCentral_FreeList(MCentral *c, int32 n, MLink *start)
 1003841:	64 48 8b 0c 25 f0 ff 	mov    %fs:0xfffffffffffffff0,%rcx
 1003848:	ff ff 
 100384a:	48 3b 21             	cmp    (%rcx),%rsp
 100384d:	77 05                	ja     1003854 <runtime.MCentral_FreeList+0x13>
 100384f:	e8 0a e1 ff ff       	callq  100195e <runtime.morestack24>
 1003854:	48 83 ec 30          	sub    $0x30,%rsp
	// Assume next == nil marks end of list.
	// n and end would be useful if we implemented
	// the transfer cache optimization in the TODO above.
	USED(n);

	runtime·lock(c);
 1003858:	48 8b 44 24 38       	mov    0x38(%rsp),%rax
 100385d:	48 89 04 24          	mov    %rax,(%rsp)
 1003861:	e8 ca 95 00 00       	callq  100ce30 <runtime.lock>
	for(v=start; v; v=next) {
 1003866:	48 8b 4c 24 48       	mov    0x48(%rsp),%rcx
 100386b:	48 83 f9 00          	cmp    $0x0,%rcx
 100386f:	74 26                	je     1003897 <runtime.MCentral_FreeList+0x56>
		next = v->next;
 1003871:	48 8b 01             	mov    (%rcx),%rax
 1003874:	48 89 44 24 20       	mov    %rax,0x20(%rsp)
		MCentral_Free(c, v);
 1003879:	48 8b 44 24 38       	mov    0x38(%rsp),%rax
 100387e:	48 89 04 24          	mov    %rax,(%rsp)
 1003882:	48 89 4c 24 08       	mov    %rcx,0x8(%rsp)
 1003887:	e8 1e 00 00 00       	callq  10038aa <MCentral_Free>
	// n and end would be useful if we implemented
	// the transfer cache optimization in the TODO above.
	USED(n);

	runtime·lock(c);
	for(v=start; v; v=next) {
 100388c:	48 8b 4c 24 20       	mov    0x20(%rsp),%rcx
 1003891:	48 83 f9 00          	cmp    $0x0,%rcx
 1003895:	75 da                	jne    1003871 <runtime.MCentral_FreeList+0x30>
		next = v->next;
		MCentral_Free(c, v);
	}
	runtime·unlock(c);
 1003897:	48 8b 44 24 38       	mov    0x38(%rsp),%rax
 100389c:	48 89 04 24          	mov    %rax,(%rsp)
 10038a0:	e8 dd 95 00 00       	callq  100ce82 <runtime.unlock>
 10038a5:	48 83 c4 30          	add    $0x30,%rsp
 10038a9:	c3                   	retq   

00000000010038aa <MCentral_Free>:
}

// Helper: free one object back into the central free list.
static void
MCentral_Free(MCentral *c, void *v)
 10038aa:	64 48 8b 0c 25 f0 ff 	mov    %fs:0xfffffffffffffff0,%rcx
 10038b1:	ff ff 
 10038b3:	48 3b 21             	cmp    (%rcx),%rsp
 10038b6:	77 05                	ja     10038bd <MCentral_Free+0x13>
 10038b8:	e8 98 e0 ff ff       	callq  1001955 <runtime.morestack16>
 10038bd:	48 83 ec 40          	sub    $0x40,%rsp
	MSpan *s;
	MLink *p;
	int32 size;

	// Find span for v.
	s = runtime·MHeap_Lookup(&runtime·mheap, v);
 10038c1:	b9 80 a0 03 01       	mov    $0x103a080,%ecx
 10038c6:	48 89 0c 24          	mov    %rcx,(%rsp)
 10038ca:	48 8b 4c 24 50       	mov    0x50(%rsp),%rcx
 10038cf:	48 89 4c 24 08       	mov    %rcx,0x8(%rsp)
 10038d4:	e8 1c 2b 00 00       	callq  10063f5 <runtime.MHeap_Lookup>
 10038d9:	48 89 c2             	mov    %rax,%rdx
	if(s == nil || s->ref == 0)
 10038dc:	48 83 f8 00          	cmp    $0x0,%rax
 10038e0:	48 89 44 24 38       	mov    %rax,0x38(%rsp)
 10038e5:	0f 84 2d 01 00 00    	je     1003a18 <MCentral_Free+0x16e>
 10038eb:	8b 40 30             	mov    0x30(%rax),%eax
 10038ee:	83 f8 00             	cmp    $0x0,%eax
 10038f1:	0f 84 21 01 00 00    	je     1003a18 <MCentral_Free+0x16e>
		runtime·throw("invalid free");

	// Move to nonempty if necessary.
	if(s->freelist == nil) {
 10038f7:	48 8b 42 28          	mov    0x28(%rdx),%rax
 10038fb:	48 83 f8 00          	cmp    $0x0,%rax
 10038ff:	75 2a                	jne    100392b <MCentral_Free+0x81>
		runtime·MSpanList_Remove(s);
 1003901:	48 89 14 24          	mov    %rdx,(%rsp)
 1003905:	e8 ac 2f 00 00       	callq  10068b6 <runtime.MSpanList_Remove>
		runtime·MSpanList_Insert(&c->nonempty, s);
 100390a:	48 8b 44 24 48       	mov    0x48(%rsp),%rax
 100390f:	48 83 c0 10          	add    $0x10,%rax
 1003913:	48 89 04 24          	mov    %rax,(%rsp)
 1003917:	48 8b 44 24 38       	mov    0x38(%rsp),%rax
 100391c:	48 89 44 24 08       	mov    %rax,0x8(%rsp)
 1003921:	e8 0b 30 00 00       	callq  1006931 <runtime.MSpanList_Insert>
 1003926:	48 8b 54 24 38       	mov    0x38(%rsp),%rdx
	}

	// Add v back to s's free list.
	p = v;
 100392b:	48 8b 5c 24 50       	mov    0x50(%rsp),%rbx
	p->next = s->freelist;
 1003930:	48 8b 4a 28          	mov    0x28(%rdx),%rcx
 1003934:	48 89 0b             	mov    %rcx,(%rbx)
	s->freelist = p;
 1003937:	48 89 5a 28          	mov    %rbx,0x28(%rdx)
	c->nfree++;
 100393b:	48 8b 44 24 48       	mov    0x48(%rsp),%rax
 1003940:	ff 80 a0 00 00 00    	incl   0xa0(%rax)

	// If s is completely freed, return it to the heap.
	if(--s->ref == 0) {
 1003946:	ff 4a 30             	decl   0x30(%rdx)
 1003949:	8b 42 30             	mov    0x30(%rdx),%eax
 100394c:	83 f8 00             	cmp    $0x0,%eax
 100394f:	0f 85 be 00 00 00    	jne    1003a13 <MCentral_Free+0x169>
		size = runtime·class_to_size[c->sizeclass];
 1003955:	48 8b 4c 24 48       	mov    0x48(%rsp),%rcx
 100395a:	8b 49 08             	mov    0x8(%rcx),%ecx
 100395d:	48 63 c9             	movslq %ecx,%rcx
 1003960:	8b 04 8d d8 51 02 01 	mov    0x10251d8(,%rcx,4),%eax
 1003967:	89 44 24 2c          	mov    %eax,0x2c(%rsp)
		runtime·MSpanList_Remove(s);
 100396b:	48 89 14 24          	mov    %rdx,(%rsp)
 100396f:	e8 42 2f 00 00       	callq  10068b6 <runtime.MSpanList_Remove>
 1003974:	48 8b 4c 24 38       	mov    0x38(%rsp),%rcx
		runtime·unmarkspan((byte*)(s->start<<PageShift), s->npages<<PageShift);
 1003979:	48 8b 41 18          	mov    0x18(%rcx),%rax
 100397d:	48 c1 e0 0c          	shl    $0xc,%rax
 1003981:	48 89 04 24          	mov    %rax,(%rsp)
 1003985:	48 8b 41 20          	mov    0x20(%rcx),%rax
 1003989:	48 c1 e0 0c          	shl    $0xc,%rax
 100398d:	48 89 44 24 08       	mov    %rax,0x8(%rsp)
 1003992:	e8 1d 20 00 00       	callq  10059b4 <runtime.unmarkspan>
 1003997:	48 8b 5c 24 48       	mov    0x48(%rsp),%rbx
 100399c:	48 8b 4c 24 38       	mov    0x38(%rsp),%rcx
		*(uintptr*)(s->start<<PageShift) = 1;  // needs zeroing
 10039a1:	48 8b 41 18          	mov    0x18(%rcx),%rax
 10039a5:	48 c1 e0 0c          	shl    $0xc,%rax
 10039a9:	48 c7 00 01 00 00 00 	movq   $0x1,(%rax)
		s->freelist = nil;
 10039b0:	48 c7 41 28 00 00 00 	movq   $0x0,0x28(%rcx)
 10039b7:	00 
		c->nfree -= (s->npages << PageShift) / size;
 10039b8:	48 8b 41 20          	mov    0x20(%rcx),%rax
 10039bc:	48 c1 e0 0c          	shl    $0xc,%rax
 10039c0:	31 d2                	xor    %edx,%edx
 10039c2:	8b 4c 24 2c          	mov    0x2c(%rsp),%ecx
 10039c6:	48 63 c9             	movslq %ecx,%rcx
 10039c9:	48 89 4c 24 18       	mov    %rcx,0x18(%rsp)
 10039ce:	48 f7 74 24 18       	divq   0x18(%rsp)
 10039d3:	48 63 c0             	movslq %eax,%rax
 10039d6:	29 83 a0 00 00 00    	sub    %eax,0xa0(%rbx)
		runtime·unlock(c);
 10039dc:	48 89 1c 24          	mov    %rbx,(%rsp)
 10039e0:	e8 9d 94 00 00       	callq  100ce82 <runtime.unlock>
		runtime·MHeap_Free(&runtime·mheap, s, 0);
 10039e5:	b8 80 a0 03 01       	mov    $0x103a080,%eax
 10039ea:	48 89 04 24          	mov    %rax,(%rsp)
 10039ee:	48 8b 44 24 38       	mov    0x38(%rsp),%rax
 10039f3:	48 89 44 24 08       	mov    %rax,0x8(%rsp)
 10039f8:	c7 44 24 10 00 00 00 	movl   $0x0,0x10(%rsp)
 10039ff:	00 
 1003a00:	e8 f9 2a 00 00       	callq  10064fe <runtime.MHeap_Free>
		runtime·lock(c);
 1003a05:	48 8b 44 24 48       	mov    0x48(%rsp),%rax
 1003a0a:	48 89 04 24          	mov    %rax,(%rsp)
 1003a0e:	e8 1d 94 00 00       	callq  100ce30 <runtime.lock>
 1003a13:	48 83 c4 40          	add    $0x40,%rsp
 1003a17:	c3                   	retq   
	int32 size;

	// Find span for v.
	s = runtime·MHeap_Lookup(&runtime·mheap, v);
	if(s == nil || s->ref == 0)
		runtime·throw("invalid free");
 1003a18:	b8 50 30 02 01       	mov    $0x1023050,%eax
 1003a1d:	48 89 04 24          	mov    %rax,(%rsp)
 1003a21:	e8 13 63 00 00       	callq  1009d39 <runtime.throw>
 1003a26:	48 8b 54 24 38       	mov    0x38(%rsp),%rdx

	// Move to nonempty if necessary.
	if(s->freelist == nil) {
 1003a2b:	e9 c7 fe ff ff       	jmpq   10038f7 <MCentral_Free+0x4d>

0000000001003a30 <runtime.MGetSizeClassInfo>:
		runtime·lock(c);
	}
}

void
runtime·MGetSizeClassInfo(int32 sizeclass, uintptr *sizep, int32 *npagesp, int32 *nobj)
 1003a30:	64 48 8b 0c 25 f0 ff 	mov    %fs:0xfffffffffffffff0,%rcx
 1003a37:	ff ff 
 1003a39:	48 3b 21             	cmp    (%rcx),%rsp
 1003a3c:	77 05                	ja     1003a43 <runtime.MGetSizeClassInfo+0x13>
 1003a3e:	e8 24 df ff ff       	callq  1001967 <runtime.morestack32>
 1003a43:	48 83 ec 10          	sub    $0x10,%rsp
 1003a47:	8b 5c 24 18          	mov    0x18(%rsp),%ebx
{
	int32 size;
	int32 npages;

	npages = runtime·class_to_allocnpages[sizeclass];
 1003a4b:	48 63 cb             	movslq %ebx,%rcx
 1003a4e:	8b 2c 8d e0 50 02 01 	mov    0x10250e0(,%rcx,4),%ebp
	size = runtime·class_to_size[sizeclass];
 1003a55:	48 63 cb             	movslq %ebx,%rcx
 1003a58:	8b 1c 8d d8 51 02 01 	mov    0x10251d8(,%rcx,4),%ebx
	*npagesp = npages;
 1003a5f:	48 8b 44 24 28       	mov    0x28(%rsp),%rax
 1003a64:	89 28                	mov    %ebp,(%rax)
	*sizep = size;
 1003a66:	48 8b 44 24 20       	mov    0x20(%rsp),%rax
 1003a6b:	48 63 cb             	movslq %ebx,%rcx
 1003a6e:	48 89 08             	mov    %rcx,(%rax)
	*nobj = (npages << PageShift) / size;
 1003a71:	89 e8                	mov    %ebp,%eax
 1003a73:	c1 e0 0c             	shl    $0xc,%eax
 1003a76:	99                   	cltd   
 1003a77:	f7 fb                	idiv   %ebx
 1003a79:	48 8b 4c 24 30       	mov    0x30(%rsp),%rcx
 1003a7e:	89 01                	mov    %eax,(%rcx)
 1003a80:	48 83 c4 10          	add    $0x10,%rsp
 1003a84:	c3                   	retq   

0000000001003a85 <MCentral_Grow>:
}

// Fetch a new span from the heap and
// carve into objects for the free list.
static bool
MCentral_Grow(MCentral *c)
 1003a85:	64 48 8b 0c 25 f0 ff 	mov    %fs:0xfffffffffffffff0,%rcx
 1003a8c:	ff ff 
 1003a8e:	48 3b 21             	cmp    (%rcx),%rsp
 1003a91:	77 05                	ja     1003a98 <MCentral_Grow+0x13>
 1003a93:	e8 b4 de ff ff       	callq  100194c <runtime.morestack8>
 1003a98:	48 83 ec 68          	sub    $0x68,%rsp
	uintptr size;
	MLink **tailp, *v;
	byte *p;
	MSpan *s;

	runtime·unlock(c);
 1003a9c:	48 8b 44 24 70       	mov    0x70(%rsp),%rax
 1003aa1:	48 89 04 24          	mov    %rax,(%rsp)
 1003aa5:	e8 d8 93 00 00       	callq  100ce82 <runtime.unlock>
	runtime·MGetSizeClassInfo(c->sizeclass, &size, &npages, &n);
 1003aaa:	48 8b 44 24 70       	mov    0x70(%rsp),%rax
 1003aaf:	8b 40 08             	mov    0x8(%rax),%eax
 1003ab2:	89 04 24             	mov    %eax,(%rsp)
 1003ab5:	48 8d 44 24 50       	lea    0x50(%rsp),%rax
 1003aba:	48 89 44 24 08       	mov    %rax,0x8(%rsp)
 1003abf:	48 8d 44 24 5c       	lea    0x5c(%rsp),%rax
 1003ac4:	48 89 44 24 10       	mov    %rax,0x10(%rsp)
 1003ac9:	48 8d 44 24 60       	lea    0x60(%rsp),%rax
 1003ace:	48 89 44 24 18       	mov    %rax,0x18(%rsp)
 1003ad3:	e8 58 ff ff ff       	callq  1003a30 <runtime.MGetSizeClassInfo>
	s = runtime·MHeap_Alloc(&runtime·mheap, npages, c->sizeclass, 0);
 1003ad8:	b9 80 a0 03 01       	mov    $0x103a080,%ecx
 1003add:	48 89 0c 24          	mov    %rcx,(%rsp)
 1003ae1:	8b 4c 24 5c          	mov    0x5c(%rsp),%ecx
 1003ae5:	48 63 c9             	movslq %ecx,%rcx
 1003ae8:	48 89 4c 24 08       	mov    %rcx,0x8(%rsp)
 1003aed:	48 8b 4c 24 70       	mov    0x70(%rsp),%rcx
 1003af2:	8b 49 08             	mov    0x8(%rcx),%ecx
 1003af5:	89 4c 24 10          	mov    %ecx,0x10(%rsp)
 1003af9:	c7 44 24 14 00 00 00 	movl   $0x0,0x14(%rsp)
 1003b00:	00 
 1003b01:	e8 e4 22 00 00       	callq  1005dea <runtime.MHeap_Alloc>
 1003b06:	48 89 c7             	mov    %rax,%rdi
	if(s == nil) {
 1003b09:	48 83 f8 00          	cmp    $0x0,%rax
 1003b0d:	75 15                	jne    1003b24 <MCentral_Grow+0x9f>
		// TODO(rsc): Log out of memory
		runtime·lock(c);
 1003b0f:	48 8b 44 24 70       	mov    0x70(%rsp),%rax
 1003b14:	48 89 04 24          	mov    %rax,(%rsp)
 1003b18:	e8 13 93 00 00       	callq  100ce30 <runtime.lock>
		return false;
 1003b1d:	31 c0                	xor    %eax,%eax
 1003b1f:	48 83 c4 68          	add    $0x68,%rsp
 1003b23:	c3                   	retq   
	}

	// Carve span into sequence of blocks.
	tailp = &s->freelist;
 1003b24:	48 83 c0 28          	add    $0x28,%rax
 1003b28:	48 89 c5             	mov    %rax,%rbp
	p = (byte*)(s->start << PageShift);
 1003b2b:	48 8b 47 18          	mov    0x18(%rdi),%rax
 1003b2f:	48 c1 e0 0c          	shl    $0xc,%rax
 1003b33:	48 89 c3             	mov    %rax,%rbx
	s->limit = p + size*n;
 1003b36:	48 89 44 24 20       	mov    %rax,0x20(%rsp)
 1003b3b:	8b 44 24 60          	mov    0x60(%rsp),%eax
 1003b3f:	48 63 c0             	movslq %eax,%rax
 1003b42:	48 f7 64 24 50       	mulq   0x50(%rsp)
 1003b47:	48 89 c1             	mov    %rax,%rcx
 1003b4a:	48 8b 44 24 20       	mov    0x20(%rsp),%rax
 1003b4f:	48 89 da             	mov    %rbx,%rdx
 1003b52:	48 8d 04 0b          	lea    (%rbx,%rcx,1),%rax
 1003b56:	48 89 47 40          	mov    %rax,0x40(%rdi)
	for(i=0; i<n; i++) {
 1003b5a:	31 f6                	xor    %esi,%esi
 1003b5c:	3b 74 24 60          	cmp    0x60(%rsp),%esi
 1003b60:	7d 1a                	jge    1003b7c <MCentral_Grow+0xf7>
		v = (MLink*)p;
 1003b62:	48 89 da             	mov    %rbx,%rdx
		*tailp = v;
 1003b65:	48 89 5d 00          	mov    %rbx,0x0(%rbp)
		tailp = &v->next;
 1003b69:	48 89 dd             	mov    %rbx,%rbp
		p += size;
 1003b6c:	48 8b 44 24 50       	mov    0x50(%rsp),%rax
 1003b71:	48 01 c3             	add    %rax,%rbx

	// Carve span into sequence of blocks.
	tailp = &s->freelist;
	p = (byte*)(s->start << PageShift);
	s->limit = p + size*n;
	for(i=0; i<n; i++) {
 1003b74:	ff c6                	inc    %esi
 1003b76:	3b 74 24 60          	cmp    0x60(%rsp),%esi
 1003b7a:	7c e6                	jl     1003b62 <MCentral_Grow+0xdd>
		v = (MLink*)p;
		*tailp = v;
		tailp = &v->next;
		p += size;
	}
	*tailp = nil;
 1003b7c:	48 c7 45 00 00 00 00 	movq   $0x0,0x0(%rbp)
 1003b83:	00 
	runtime·markspan((byte*)(s->start<<PageShift), size, n, size*n < (s->npages<<PageShift));
 1003b84:	48 8b 47 18          	mov    0x18(%rdi),%rax
 1003b88:	48 c1 e0 0c          	shl    $0xc,%rax
 1003b8c:	48 89 04 24          	mov    %rax,(%rsp)
 1003b90:	48 8b 44 24 50       	mov    0x50(%rsp),%rax
 1003b95:	48 89 44 24 08       	mov    %rax,0x8(%rsp)
 1003b9a:	8b 44 24 60          	mov    0x60(%rsp),%eax
 1003b9e:	48 63 c0             	movslq %eax,%rax
 1003ba1:	48 89 44 24 10       	mov    %rax,0x10(%rsp)
 1003ba6:	8b 44 24 60          	mov    0x60(%rsp),%eax
 1003baa:	48 63 c0             	movslq %eax,%rax
 1003bad:	48 f7 64 24 50       	mulq   0x50(%rsp)
 1003bb2:	48 89 7c 24 30       	mov    %rdi,0x30(%rsp)
 1003bb7:	48 8b 4f 20          	mov    0x20(%rdi),%rcx
 1003bbb:	48 c1 e1 0c          	shl    $0xc,%rcx
 1003bbf:	48 39 c8             	cmp    %rcx,%rax
 1003bc2:	73 4c                	jae    1003c10 <MCentral_Grow+0x18b>
 1003bc4:	b8 01 00 00 00       	mov    $0x1,%eax
 1003bc9:	88 44 24 18          	mov    %al,0x18(%rsp)
 1003bcd:	e8 de 1c 00 00       	callq  10058b0 <runtime.markspan>

	runtime·lock(c);
 1003bd2:	48 8b 44 24 70       	mov    0x70(%rsp),%rax
 1003bd7:	48 89 04 24          	mov    %rax,(%rsp)
 1003bdb:	e8 50 92 00 00       	callq  100ce30 <runtime.lock>
 1003be0:	48 8b 44 24 70       	mov    0x70(%rsp),%rax
	c->nfree += n;
 1003be5:	8b 4c 24 60          	mov    0x60(%rsp),%ecx
 1003be9:	01 88 a0 00 00 00    	add    %ecx,0xa0(%rax)
	runtime·MSpanList_Insert(&c->nonempty, s);
 1003bef:	48 83 c0 10          	add    $0x10,%rax
 1003bf3:	48 89 04 24          	mov    %rax,(%rsp)
 1003bf7:	48 8b 44 24 30       	mov    0x30(%rsp),%rax
 1003bfc:	48 89 44 24 08       	mov    %rax,0x8(%rsp)
 1003c01:	e8 2b 2d 00 00       	callq  1006931 <runtime.MSpanList_Insert>
	return true;
 1003c06:	b8 01 00 00 00       	mov    $0x1,%eax
 1003c0b:	48 83 c4 68          	add    $0x68,%rsp
 1003c0f:	c3                   	retq   
 1003c10:	31 c0                	xor    %eax,%eax
 1003c12:	eb b5                	jmp    1003bc9 <MCentral_Grow+0x144>

0000000001003c14 <addrspace_free>:
{
	ENOMEM = 12,
};

static int32
addrspace_free(void *v, uintptr n)
 1003c14:	64 48 8b 0c 25 f0 ff 	mov    %fs:0xfffffffffffffff0,%rcx
 1003c1b:	ff ff 
 1003c1d:	48 3b 21             	cmp    (%rcx),%rsp
 1003c20:	77 05                	ja     1003c27 <addrspace_free+0x13>
 1003c22:	e8 2e dd ff ff       	callq  1001955 <runtime.morestack16>
 1003c27:	48 83 ec 40          	sub    $0x40,%rsp
{
	uintptr page_size = 4096;
 1003c2b:	48 c7 c6 00 10 00 00 	mov    $0x1000,%rsi
	uintptr off;
	int8 one_byte;

	for(off = 0; off < n; off += page_size) {
 1003c32:	48 31 ed             	xor    %rbp,%rbp
 1003c35:	48 3b 6c 24 50       	cmp    0x50(%rsp),%rbp
 1003c3a:	73 4c                	jae    1003c88 <addrspace_free+0x74>
		int32 errval = runtime·mincore((int8 *)v + off, page_size, (void *)&one_byte);
 1003c3c:	48 8b 54 24 48       	mov    0x48(%rsp),%rdx
 1003c41:	48 89 eb             	mov    %rbp,%rbx
 1003c44:	48 89 6c 24 30       	mov    %rbp,0x30(%rsp)
 1003c49:	48 8d 0c 13          	lea    (%rbx,%rdx,1),%rcx
 1003c4d:	48 89 0c 24          	mov    %rcx,(%rsp)
 1003c51:	48 89 74 24 38       	mov    %rsi,0x38(%rsp)
 1003c56:	48 89 74 24 08       	mov    %rsi,0x8(%rsp)
 1003c5b:	48 8d 4c 24 2f       	lea    0x2f(%rsp),%rcx
 1003c60:	48 89 4c 24 10       	mov    %rcx,0x10(%rsp)
 1003c65:	e8 71 8b 00 00       	callq  100c7db <runtime.mincore>
 1003c6a:	48 8b 74 24 38       	mov    0x38(%rsp),%rsi
 1003c6f:	48 8b 6c 24 30       	mov    0x30(%rsp),%rbp
		// errval is 0 if success, or -(error_code) if error.
		if (errval == 0 || errval != -ENOMEM)
 1003c74:	83 f8 00             	cmp    $0x0,%eax
 1003c77:	74 19                	je     1003c92 <addrspace_free+0x7e>
 1003c79:	83 f8 f4             	cmp    $0xfffffffffffffff4,%eax
 1003c7c:	75 14                	jne    1003c92 <addrspace_free+0x7e>
{
	uintptr page_size = 4096;
	uintptr off;
	int8 one_byte;

	for(off = 0; off < n; off += page_size) {
 1003c7e:	48 01 f5             	add    %rsi,%rbp
 1003c81:	48 3b 6c 24 50       	cmp    0x50(%rsp),%rbp
 1003c86:	72 b4                	jb     1003c3c <addrspace_free+0x28>
		if (errval == 0 || errval != -ENOMEM)
			return 0;
	}
	USED(v);
	USED(n);
	return 1;
 1003c88:	b8 01 00 00 00       	mov    $0x1,%eax
 1003c8d:	48 83 c4 40          	add    $0x40,%rsp
 1003c91:	c3                   	retq   

	for(off = 0; off < n; off += page_size) {
		int32 errval = runtime·mincore((int8 *)v + off, page_size, (void *)&one_byte);
		// errval is 0 if success, or -(error_code) if error.
		if (errval == 0 || errval != -ENOMEM)
			return 0;
 1003c92:	31 c0                	xor    %eax,%eax
 1003c94:	48 83 c4 40          	add    $0x40,%rsp
 1003c98:	c3                   	retq   

0000000001003c99 <runtime.SysAlloc>:
	return 1;
}


void*
runtime·SysAlloc(uintptr n)
 1003c99:	64 48 8b 0c 25 f0 ff 	mov    %fs:0xfffffffffffffff0,%rcx
 1003ca0:	ff ff 
 1003ca2:	48 3b 21             	cmp    (%rcx),%rsp
 1003ca5:	77 05                	ja     1003cac <runtime.SysAlloc+0x13>
 1003ca7:	e8 a0 dc ff ff       	callq  100194c <runtime.morestack8>
 1003cac:	48 83 ec 38          	sub    $0x38,%rsp
 1003cb0:	48 8b 54 24 40       	mov    0x40(%rsp),%rdx
{
	void *p;

	mstats.sys += n;
 1003cb5:	48 01 14 25 68 62 02 	add    %rdx,0x1026268
 1003cbc:	01 
	p = runtime·mmap(nil, n, PROT_READ|PROT_WRITE|PROT_EXEC, MAP_ANON|MAP_PRIVATE, -1, 0);
 1003cbd:	48 c7 04 24 00 00 00 	movq   $0x0,(%rsp)
 1003cc4:	00 
 1003cc5:	48 89 54 24 08       	mov    %rdx,0x8(%rsp)
 1003cca:	b9 07 00 00 00       	mov    $0x7,%ecx
 1003ccf:	89 4c 24 10          	mov    %ecx,0x10(%rsp)
 1003cd3:	b9 22 00 00 00       	mov    $0x22,%ecx
 1003cd8:	89 4c 24 14          	mov    %ecx,0x14(%rsp)
 1003cdc:	b9 ff ff ff ff       	mov    $0xffffffff,%ecx
 1003ce1:	89 4c 24 18          	mov    %ecx,0x18(%rsp)
 1003ce5:	c7 44 24 1c 00 00 00 	movl   $0x0,0x1c(%rsp)
 1003cec:	00 
 1003ced:	e8 aa 8b 00 00       	callq  100c89c <runtime.mmap>
	if(p < (void*)4096) {
 1003cf2:	48 3d 00 10 00 00    	cmp    $0x1000,%rax
 1003cf8:	73 37                	jae    1003d31 <runtime.SysAlloc+0x98>
		if(p == (void*)EACCES) {
 1003cfa:	48 83 f8 0d          	cmp    $0xd,%rax
 1003cfe:	75 29                	jne    1003d29 <runtime.SysAlloc+0x90>
			runtime·printf("runtime: mmap: access denied\n");
 1003d00:	b8 90 33 02 01       	mov    $0x1023390,%eax
 1003d05:	48 89 04 24          	mov    %rax,(%rsp)
 1003d09:	e8 30 36 00 00       	callq  100733e <runtime.printf>
			runtime·printf("if you're running SELinux, enable execmem for this process.\n");
 1003d0e:	b8 ae 33 02 01       	mov    $0x10233ae,%eax
 1003d13:	48 89 04 24          	mov    %rax,(%rsp)
 1003d17:	e8 22 36 00 00       	callq  100733e <runtime.printf>
			runtime·exit(2);
 1003d1c:	b8 02 00 00 00       	mov    $0x2,%eax
 1003d21:	89 04 24             	mov    %eax,(%rsp)
 1003d24:	e8 48 8a 00 00       	callq  100c771 <runtime.exit>
		}
		return nil;
 1003d29:	48 31 c0             	xor    %rax,%rax
 1003d2c:	48 83 c4 38          	add    $0x38,%rsp
 1003d30:	c3                   	retq   
	}
	return p;
 1003d31:	48 83 c4 38          	add    $0x38,%rsp
 1003d35:	c3                   	retq   

0000000001003d36 <runtime.SysFree>:
	USED(n);
	// TODO(rsc): call madvise MADV_DONTNEED
}

void
runtime·SysFree(void *v, uintptr n)
 1003d36:	64 48 8b 0c 25 f0 ff 	mov    %fs:0xfffffffffffffff0,%rcx
 1003d3d:	ff ff 
 1003d3f:	48 3b 21             	cmp    (%rcx),%rsp
 1003d42:	77 05                	ja     1003d49 <runtime.SysFree+0x13>
 1003d44:	e8 0c dc ff ff       	callq  1001955 <runtime.morestack16>
 1003d49:	48 83 ec 18          	sub    $0x18,%rsp
 1003d4d:	48 8b 4c 24 28       	mov    0x28(%rsp),%rcx
{
	mstats.sys -= n;
 1003d52:	48 29 0c 25 68 62 02 	sub    %rcx,0x1026268
 1003d59:	01 
	runtime·munmap(v, n);
 1003d5a:	48 8b 44 24 20       	mov    0x20(%rsp),%rax
 1003d5f:	48 89 04 24          	mov    %rax,(%rsp)
 1003d63:	48 89 4c 24 08       	mov    %rcx,0x8(%rsp)
 1003d68:	e8 65 8b 00 00       	callq  100c8d2 <runtime.munmap>
 1003d6d:	48 83 c4 18          	add    $0x18,%rsp
 1003d71:	c3                   	retq   

0000000001003d72 <runtime.SysReserve>:
}

void*
runtime·SysReserve(void *v, uintptr n)
 1003d72:	64 48 8b 0c 25 f0 ff 	mov    %fs:0xfffffffffffffff0,%rcx
 1003d79:	ff ff 
 1003d7b:	48 3b 21             	cmp    (%rcx),%rsp
 1003d7e:	77 05                	ja     1003d85 <runtime.SysReserve+0x13>
 1003d80:	e8 d0 db ff ff       	callq  1001955 <runtime.morestack16>
 1003d85:	48 83 ec 38          	sub    $0x38,%rsp

	// On 64-bit, people with ulimit -v set complain if we reserve too
	// much address space.  Instead, assume that the reservation is okay
	// and check the assumption in SysMap.
	if(sizeof(void*) == 8)
		return v;
 1003d89:	48 8b 44 24 40       	mov    0x40(%rsp),%rax
 1003d8e:	48 83 c4 38          	add    $0x38,%rsp
 1003d92:	c3                   	retq   

0000000001003d93 <runtime.SysMap>:
	}
	return p;
}

void
runtime·SysMap(void *v, uintptr n)
 1003d93:	64 48 8b 0c 25 f0 ff 	mov    %fs:0xfffffffffffffff0,%rcx
 1003d9a:	ff ff 
 1003d9c:	48 3b 21             	cmp    (%rcx),%rsp
 1003d9f:	77 05                	ja     1003da6 <runtime.SysMap+0x13>
 1003da1:	e8 af db ff ff       	callq  1001955 <runtime.morestack16>
 1003da6:	48 83 ec 38          	sub    $0x38,%rsp
 1003daa:	48 8b 54 24 48       	mov    0x48(%rsp),%rdx
{
	void *p;
	
	mstats.sys += n;
 1003daf:	48 01 14 25 68 62 02 	add    %rdx,0x1026268
 1003db6:	01 

	// On 64-bit, we don't actually have v reserved, so tread carefully.
	if(sizeof(void*) == 8) {
		p = runtime·mmap(v, n, PROT_READ|PROT_WRITE|PROT_EXEC, MAP_ANON|MAP_PRIVATE, -1, 0);
 1003db7:	48 8b 4c 24 40       	mov    0x40(%rsp),%rcx
 1003dbc:	48 89 0c 24          	mov    %rcx,(%rsp)
 1003dc0:	48 89 54 24 08       	mov    %rdx,0x8(%rsp)
 1003dc5:	b9 07 00 00 00       	mov    $0x7,%ecx
 1003dca:	89 4c 24 10          	mov    %ecx,0x10(%rsp)
 1003dce:	b9 22 00 00 00       	mov    $0x22,%ecx
 1003dd3:	89 4c 24 14          	mov    %ecx,0x14(%rsp)
 1003dd7:	b9 ff ff ff ff       	mov    $0xffffffff,%ecx
 1003ddc:	89 4c 24 18          	mov    %ecx,0x18(%rsp)
 1003de0:	c7 44 24 1c 00 00 00 	movl   $0x0,0x1c(%rsp)
 1003de7:	00 
 1003de8:	e8 af 8a 00 00       	callq  100c89c <runtime.mmap>
 1003ded:	48 89 c1             	mov    %rax,%rcx
		if(p != v && addrspace_free(v, n)) {
 1003df0:	48 89 44 24 30       	mov    %rax,0x30(%rsp)
 1003df5:	48 3b 44 24 40       	cmp    0x40(%rsp),%rax
 1003dfa:	74 22                	je     1003e1e <runtime.SysMap+0x8b>
 1003dfc:	48 8b 4c 24 40       	mov    0x40(%rsp),%rcx
 1003e01:	48 89 0c 24          	mov    %rcx,(%rsp)
 1003e05:	48 8b 4c 24 48       	mov    0x48(%rsp),%rcx
 1003e0a:	48 89 4c 24 08       	mov    %rcx,0x8(%rsp)
 1003e0f:	e8 00 fe ff ff       	callq  1003c14 <addrspace_free>
 1003e14:	48 8b 4c 24 30       	mov    0x30(%rsp),%rcx
 1003e19:	83 f8 00             	cmp    $0x0,%eax
 1003e1c:	75 55                	jne    1003e73 <runtime.SysMap+0xe0>
			if(p > (void*)4096) {
				runtime·munmap(p, n);
			}
			p = runtime·mmap(v, n, PROT_READ|PROT_WRITE|PROT_EXEC, MAP_ANON|MAP_FIXED|MAP_PRIVATE, -1, 0);
		}
		if(p == (void*)ENOMEM)
 1003e1e:	48 83 f9 0c          	cmp    $0xc,%rcx
 1003e22:	48 89 4c 24 30       	mov    %rcx,0x30(%rsp)
 1003e27:	75 13                	jne    1003e3c <runtime.SysMap+0xa9>
			runtime·throw("runtime: out of memory");
 1003e29:	b8 eb 33 02 01       	mov    $0x10233eb,%eax
 1003e2e:	48 89 04 24          	mov    %rax,(%rsp)
 1003e32:	e8 02 5f 00 00       	callq  1009d39 <runtime.throw>
 1003e37:	48 8b 4c 24 30       	mov    0x30(%rsp),%rcx
		if(p != v) {
 1003e3c:	48 3b 4c 24 40       	cmp    0x40(%rsp),%rcx
 1003e41:	74 2b                	je     1003e6e <runtime.SysMap+0xdb>
			runtime·printf("runtime: address space conflict: map(%p) = %p\n", v, p);
 1003e43:	b8 02 34 02 01       	mov    $0x1023402,%eax
 1003e48:	48 89 04 24          	mov    %rax,(%rsp)
 1003e4c:	48 8b 44 24 40       	mov    0x40(%rsp),%rax
 1003e51:	48 89 44 24 08       	mov    %rax,0x8(%rsp)
 1003e56:	48 89 4c 24 10       	mov    %rcx,0x10(%rsp)
 1003e5b:	e8 de 34 00 00       	callq  100733e <runtime.printf>
			runtime·throw("runtime: address space conflict");
 1003e60:	b8 31 34 02 01       	mov    $0x1023431,%eax
 1003e65:	48 89 04 24          	mov    %rax,(%rsp)
 1003e69:	e8 cb 5e 00 00       	callq  1009d39 <runtime.throw>
		}
		return;
 1003e6e:	48 83 c4 38          	add    $0x38,%rsp
 1003e72:	c3                   	retq   
	if(sizeof(void*) == 8) {
		p = runtime·mmap(v, n, PROT_READ|PROT_WRITE|PROT_EXEC, MAP_ANON|MAP_PRIVATE, -1, 0);
		if(p != v && addrspace_free(v, n)) {
			// On some systems, mmap ignores v without
			// MAP_FIXED, so retry if the address space is free.
			if(p > (void*)4096) {
 1003e73:	48 81 f9 00 10 00 00 	cmp    $0x1000,%rcx
 1003e7a:	76 13                	jbe    1003e8f <runtime.SysMap+0xfc>
				runtime·munmap(p, n);
 1003e7c:	48 89 0c 24          	mov    %rcx,(%rsp)
 1003e80:	48 8b 44 24 48       	mov    0x48(%rsp),%rax
 1003e85:	48 89 44 24 08       	mov    %rax,0x8(%rsp)
 1003e8a:	e8 43 8a 00 00       	callq  100c8d2 <runtime.munmap>
			}
			p = runtime·mmap(v, n, PROT_READ|PROT_WRITE|PROT_EXEC, MAP_ANON|MAP_FIXED|MAP_PRIVATE, -1, 0);
 1003e8f:	48 8b 4c 24 40       	mov    0x40(%rsp),%rcx
 1003e94:	48 89 0c 24          	mov    %rcx,(%rsp)
 1003e98:	48 8b 4c 24 48       	mov    0x48(%rsp),%rcx
 1003e9d:	48 89 4c 24 08       	mov    %rcx,0x8(%rsp)
 1003ea2:	b9 07 00 00 00       	mov    $0x7,%ecx
 1003ea7:	89 4c 24 10          	mov    %ecx,0x10(%rsp)
 1003eab:	b9 32 00 00 00       	mov    $0x32,%ecx
 1003eb0:	89 4c 24 14          	mov    %ecx,0x14(%rsp)
 1003eb4:	b9 ff ff ff ff       	mov    $0xffffffff,%ecx
 1003eb9:	89 4c 24 18          	mov    %ecx,0x18(%rsp)
 1003ebd:	c7 44 24 1c 00 00 00 	movl   $0x0,0x1c(%rsp)
 1003ec4:	00 
 1003ec5:	e8 d2 89 00 00       	callq  100c89c <runtime.mmap>
 1003eca:	48 89 c1             	mov    %rax,%rcx
 1003ecd:	e9 4c ff ff ff       	jmpq   1003e1e <runtime.SysMap+0x8b>

0000000001003ed2 <runtime.memmove>:
// OUT OF OR IN CONNECTION WITH THE SOFTWARE OR THE USE OR OTHER DEALINGS IN
// THE SOFTWARE.

TEXT runtime·memmove(SB), 7, $0

	MOVQ	to+0(FP), DI
 1003ed2:	48 8b 7c 24 08       	mov    0x8(%rsp),%rdi
	MOVQ	fr+8(FP), SI
 1003ed7:	48 8b 74 24 10       	mov    0x10(%rsp),%rsi
	MOVLQSX	n+16(FP), BX
 1003edc:	48 63 5c 24 18       	movslq 0x18(%rsp),%rbx

/*
 * check and set for backwards
 */
	CMPQ	SI, DI
 1003ee1:	48 39 fe             	cmp    %rdi,%rsi
	JLS	back
 1003ee4:	76 19                	jbe    1003eff <runtime.memmove+0x2d>

/*
 * forward copy loop
 */
forward:	
	MOVQ	BX, CX
 1003ee6:	48 89 d9             	mov    %rbx,%rcx
	SHRQ	$3, CX
 1003ee9:	48 c1 e9 03          	shr    $0x3,%rcx
	ANDQ	$7, BX
 1003eed:	48 83 e3 07          	and    $0x7,%rbx

	REP;	MOVSQ
 1003ef1:	f3 48 a5             	rep movsq %ds:(%rsi),%es:(%rdi)
	MOVQ	BX, CX
 1003ef4:	48 89 d9             	mov    %rbx,%rcx
	REP;	MOVSB
 1003ef7:	f3 a4                	rep movsb %ds:(%rsi),%es:(%rdi)

	MOVQ	to+0(FP),AX
 1003ef9:	48 8b 44 24 08       	mov    0x8(%rsp),%rax
	RET
 1003efe:	c3                   	retq   
back:
/*
 * check overlap
 */
	MOVQ	SI, CX
 1003eff:	48 89 f1             	mov    %rsi,%rcx
	ADDQ	BX, CX
 1003f02:	48 01 d9             	add    %rbx,%rcx
	CMPQ	CX, DI
 1003f05:	48 39 f9             	cmp    %rdi,%rcx
	JLS	forward
 1003f08:	76 dc                	jbe    1003ee6 <runtime.memmove+0x14>
	
/*
 * whole thing backwards has
 * adjusted addresses
 */
	ADDQ	BX, DI
 1003f0a:	48 01 df             	add    %rbx,%rdi
	ADDQ	BX, SI
 1003f0d:	48 01 de             	add    %rbx,%rsi
	STD
 1003f10:	fd                   	std    

/*
 * copy
 */
	MOVQ	BX, CX
 1003f11:	48 89 d9             	mov    %rbx,%rcx
	SHRQ	$3, CX
 1003f14:	48 c1 e9 03          	shr    $0x3,%rcx
	ANDQ	$7, BX
 1003f18:	48 83 e3 07          	and    $0x7,%rbx

	SUBQ	$8, DI
 1003f1c:	48 83 ef 08          	sub    $0x8,%rdi
	SUBQ	$8, SI
 1003f20:	48 83 ee 08          	sub    $0x8,%rsi
	REP;	MOVSQ
 1003f24:	f3 48 a5             	rep movsq %ds:(%rsi),%es:(%rdi)

	ADDQ	$7, DI
 1003f27:	48 83 c7 07          	add    $0x7,%rdi
	ADDQ	$7, SI
 1003f2b:	48 83 c6 07          	add    $0x7,%rsi
	MOVQ	BX, CX
 1003f2f:	48 89 d9             	mov    %rbx,%rcx
	REP;	MOVSB
 1003f32:	f3 a4                	rep movsb %ds:(%rsi),%es:(%rdi)

	CLD
 1003f34:	fc                   	cld    
	MOVQ	to+0(FP),AX
 1003f35:	48 8b 44 24 08       	mov    0x8(%rsp),%rax
 1003f3a:	c3                   	retq   

0000000001003f3b <lookfintab>:
	t->key[i] = k;
	t->val[i] = v;
}

static Finalizer*
lookfintab(Fintab *t, void *k, bool del)
 1003f3b:	64 48 8b 0c 25 f0 ff 	mov    %fs:0xfffffffffffffff0,%rcx
 1003f42:	ff ff 
 1003f44:	48 3b 21             	cmp    (%rcx),%rsp
 1003f47:	77 05                	ja     1003f4e <lookfintab+0x13>
 1003f49:	e8 10 da ff ff       	callq  100195e <runtime.morestack24>
 1003f4e:	48 83 ec 28          	sub    $0x28,%rsp
 1003f52:	48 8b 7c 24 38       	mov    0x38(%rsp),%rdi
 1003f57:	48 8b 6c 24 30       	mov    0x30(%rsp),%rbp
{
	int32 i, j;
	Finalizer *v;

	if(t->max == 0)
 1003f5c:	8b 45 18             	mov    0x18(%rbp),%eax
 1003f5f:	83 f8 00             	cmp    $0x0,%eax
 1003f62:	75 08                	jne    1003f6c <lookfintab+0x31>
		return nil;
 1003f64:	48 31 c0             	xor    %rax,%rax
 1003f67:	48 83 c4 28          	add    $0x28,%rsp
 1003f6b:	c3                   	retq   
	i = (uintptr)k % (uintptr)t->max;
 1003f6c:	8b 4d 18             	mov    0x18(%rbp),%ecx
 1003f6f:	48 63 c9             	movslq %ecx,%rcx
 1003f72:	48 89 4c 24 08       	mov    %rcx,0x8(%rsp)
 1003f77:	48 89 f8             	mov    %rdi,%rax
 1003f7a:	31 d2                	xor    %edx,%edx
 1003f7c:	48 f7 74 24 08       	divq   0x8(%rsp)
 1003f81:	48 63 c2             	movslq %edx,%rax
 1003f84:	89 c3                	mov    %eax,%ebx
	for(j=0; j<t->max; j++) {
 1003f86:	31 f6                	xor    %esi,%esi
 1003f88:	8b 45 18             	mov    0x18(%rbp),%eax
 1003f8b:	39 c6                	cmp    %eax,%esi
 1003f8d:	0f 8d 8b 00 00 00    	jge    100401e <lookfintab+0xe3>
		if(t->key[i] == nil)
 1003f93:	48 63 c3             	movslq %ebx,%rax
 1003f96:	48 8b 4d 00          	mov    0x0(%rbp),%rcx
 1003f9a:	48 8d 04 c1          	lea    (%rcx,%rax,8),%rax
 1003f9e:	48 8b 00             	mov    (%rax),%rax
 1003fa1:	48 83 f8 00          	cmp    $0x0,%rax
 1003fa5:	75 08                	jne    1003faf <lookfintab+0x74>
			return nil;
 1003fa7:	48 31 c0             	xor    %rax,%rax
 1003faa:	48 83 c4 28          	add    $0x28,%rsp
 1003fae:	c3                   	retq   
		if(t->key[i] == k) {
 1003faf:	48 63 c3             	movslq %ebx,%rax
 1003fb2:	48 8b 4d 00          	mov    0x0(%rbp),%rcx
 1003fb6:	48 8d 04 c1          	lea    (%rcx,%rax,8),%rax
 1003fba:	48 8b 00             	mov    (%rax),%rax
 1003fbd:	48 39 f8             	cmp    %rdi,%rax
 1003fc0:	75 44                	jne    1004006 <lookfintab+0xcb>
			v = t->val[i];
 1003fc2:	48 63 c3             	movslq %ebx,%rax
 1003fc5:	48 8b 4d 08          	mov    0x8(%rbp),%rcx
 1003fc9:	48 8d 04 c1          	lea    (%rcx,%rax,8),%rax
 1003fcd:	48 8b 30             	mov    (%rax),%rsi
			if(del) {
 1003fd0:	80 7c 24 40 00       	cmpb   $0x0,0x40(%rsp)
 1003fd5:	74 27                	je     1003ffe <lookfintab+0xc3>
				t->key[i] = (void*)-1;
 1003fd7:	48 63 c3             	movslq %ebx,%rax
 1003fda:	48 8b 4d 00          	mov    0x0(%rbp),%rcx
 1003fde:	48 8d 04 c1          	lea    (%rcx,%rax,8),%rax
 1003fe2:	48 c7 00 ff ff ff ff 	movq   $0xffffffffffffffff,(%rax)
				t->val[i] = nil;
 1003fe9:	48 63 c3             	movslq %ebx,%rax
 1003fec:	48 8b 4d 08          	mov    0x8(%rbp),%rcx
 1003ff0:	48 8d 04 c1          	lea    (%rcx,%rax,8),%rax
 1003ff4:	48 c7 00 00 00 00 00 	movq   $0x0,(%rax)
				t->ndead++;
 1003ffb:	ff 45 14             	incl   0x14(%rbp)
			}
			return v;
 1003ffe:	48 89 f0             	mov    %rsi,%rax
 1004001:	48 83 c4 28          	add    $0x28,%rsp
 1004005:	c3                   	retq   
		}
		if(++i == t->max)
 1004006:	ff c3                	inc    %ebx
 1004008:	8b 4d 18             	mov    0x18(%rbp),%ecx
 100400b:	39 cb                	cmp    %ecx,%ebx
 100400d:	75 02                	jne    1004011 <lookfintab+0xd6>
			i = 0;
 100400f:	31 db                	xor    %ebx,%ebx
	Finalizer *v;

	if(t->max == 0)
		return nil;
	i = (uintptr)k % (uintptr)t->max;
	for(j=0; j<t->max; j++) {
 1004011:	ff c6                	inc    %esi
 1004013:	8b 45 18             	mov    0x18(%rbp),%eax
 1004016:	39 c6                	cmp    %eax,%esi
 1004018:	0f 8c 75 ff ff ff    	jl     1003f93 <lookfintab+0x58>
		if(++i == t->max)
			i = 0;
	}

	// cannot happen - table is known to be non-full
	runtime·throw("finalizer table inconsistent");
 100401e:	b8 75 31 02 01       	mov    $0x1023175,%eax
 1004023:	48 89 04 24          	mov    %rax,(%rsp)
 1004027:	e8 0d 5d 00 00       	callq  1009d39 <runtime.throw>
	return nil;
 100402c:	48 31 c0             	xor    %rax,%rax
 100402f:	48 83 c4 28          	add    $0x28,%rsp
 1004033:	c3                   	retq   

0000000001004034 <runtime.getfinalizer>:
}

// get finalizer; if del, delete finalizer.
// caller is responsible for updating RefHasFinalizer bit.
Finalizer*
runtime·getfinalizer(void *p, bool del)
 1004034:	64 48 8b 0c 25 f0 ff 	mov    %fs:0xfffffffffffffff0,%rcx
 100403b:	ff ff 
 100403d:	48 3b 21             	cmp    (%rcx),%rsp
 1004040:	77 05                	ja     1004047 <runtime.getfinalizer+0x13>
 1004042:	e8 0e d9 ff ff       	callq  1001955 <runtime.morestack16>
 1004047:	48 83 ec 28          	sub    $0x28,%rsp
{
	Finalizer *f;
	
	runtime·lock(&finlock);
 100404b:	b8 68 4e 02 01       	mov    $0x1024e68,%eax
 1004050:	48 89 04 24          	mov    %rax,(%rsp)
 1004054:	e8 d7 8d 00 00       	callq  100ce30 <runtime.lock>
	f = lookfintab(&fintab, p, del);
 1004059:	b9 30 4f 02 01       	mov    $0x1024f30,%ecx
 100405e:	48 89 0c 24          	mov    %rcx,(%rsp)
 1004062:	48 8b 4c 24 30       	mov    0x30(%rsp),%rcx
 1004067:	48 89 4c 24 08       	mov    %rcx,0x8(%rsp)
 100406c:	0f b6 4c 24 38       	movzbl 0x38(%rsp),%ecx
 1004071:	88 4c 24 10          	mov    %cl,0x10(%rsp)
 1004075:	e8 c1 fe ff ff       	callq  1003f3b <lookfintab>
 100407a:	48 89 44 24 20       	mov    %rax,0x20(%rsp)
	runtime·unlock(&finlock);
 100407f:	b8 68 4e 02 01       	mov    $0x1024e68,%eax
 1004084:	48 89 04 24          	mov    %rax,(%rsp)
 1004088:	e8 f5 8d 00 00       	callq  100ce82 <runtime.unlock>
	return f;
 100408d:	48 8b 44 24 20       	mov    0x20(%rsp),%rax
 1004092:	48 83 c4 28          	add    $0x28,%rsp
 1004096:	c3                   	retq   

0000000001004097 <runtime.walkfintab>:
}

void
runtime·walkfintab(void (*fn)(void*))
 1004097:	64 48 8b 0c 25 f0 ff 	mov    %fs:0xfffffffffffffff0,%rcx
 100409e:	ff ff 
 10040a0:	48 3b 21             	cmp    (%rcx),%rsp
 10040a3:	77 05                	ja     10040aa <runtime.walkfintab+0x13>
 10040a5:	e8 a2 d8 ff ff       	callq  100194c <runtime.morestack8>
 10040aa:	48 83 ec 28          	sub    $0x28,%rsp
{
	void **key;
	void **ekey;

	runtime·lock(&finlock);
 10040ae:	b8 68 4e 02 01       	mov    $0x1024e68,%eax
 10040b3:	48 89 04 24          	mov    %rax,(%rsp)
 10040b7:	e8 74 8d 00 00       	callq  100ce30 <runtime.lock>
	key = fintab.key;
 10040bc:	48 8b 1c 25 30 4f 02 	mov    0x1024f30,%rbx
 10040c3:	01 
	ekey = key + fintab.max;
 10040c4:	8b 0c 25 48 4f 02 01 	mov    0x1024f48,%ecx
 10040cb:	48 63 c9             	movslq %ecx,%rcx
 10040ce:	48 8d 04 cb          	lea    (%rbx,%rcx,8),%rax
 10040d2:	48 89 44 24 18       	mov    %rax,0x18(%rsp)
	for(; key < ekey; key++)
 10040d7:	48 3b 5c 24 18       	cmp    0x18(%rsp),%rbx
 10040dc:	73 1d                	jae    10040fb <runtime.walkfintab+0x64>
		if(*key != nil && *key != ((void*)-1))
 10040de:	48 8b 03             	mov    (%rbx),%rax
 10040e1:	48 83 f8 00          	cmp    $0x0,%rax
 10040e5:	74 09                	je     10040f0 <runtime.walkfintab+0x59>
 10040e7:	48 8b 03             	mov    (%rbx),%rax
 10040ea:	48 83 f8 ff          	cmp    $0xffffffffffffffff,%rax
 10040ee:	75 1e                	jne    100410e <runtime.walkfintab+0x77>
	void **ekey;

	runtime·lock(&finlock);
	key = fintab.key;
	ekey = key + fintab.max;
	for(; key < ekey; key++)
 10040f0:	48 83 c3 08          	add    $0x8,%rbx
 10040f4:	48 3b 5c 24 18       	cmp    0x18(%rsp),%rbx
 10040f9:	72 e3                	jb     10040de <runtime.walkfintab+0x47>
		if(*key != nil && *key != ((void*)-1))
			fn(*key);
	runtime·unlock(&finlock);
 10040fb:	b8 68 4e 02 01       	mov    $0x1024e68,%eax
 1004100:	48 89 04 24          	mov    %rax,(%rsp)
 1004104:	e8 79 8d 00 00       	callq  100ce82 <runtime.unlock>
 1004109:	48 83 c4 28          	add    $0x28,%rsp
 100410d:	c3                   	retq   
	runtime·lock(&finlock);
	key = fintab.key;
	ekey = key + fintab.max;
	for(; key < ekey; key++)
		if(*key != nil && *key != ((void*)-1))
			fn(*key);
 100410e:	48 89 5c 24 20       	mov    %rbx,0x20(%rsp)
 1004113:	48 8b 03             	mov    (%rbx),%rax
 1004116:	48 89 04 24          	mov    %rax,(%rsp)
 100411a:	48 8b 44 24 30       	mov    0x30(%rsp),%rax
 100411f:	ff d0                	callq  *%rax
 1004121:	48 8b 5c 24 20       	mov    0x20(%rsp),%rbx
 1004126:	eb c8                	jmp    10040f0 <runtime.walkfintab+0x59>

0000000001004128 <runtime.FixAlloc_Init>:
#include "malloc.h"

// Initialize f to allocate objects of the given size,
// using the allocator to obtain chunks of memory.
void
runtime·FixAlloc_Init(FixAlloc *f, uintptr size, void *(*alloc)(uintptr), void (*first)(void*, byte*), void *arg)
 1004128:	64 48 8b 0c 25 f0 ff 	mov    %fs:0xfffffffffffffff0,%rcx
 100412f:	ff ff 
 1004131:	48 3b 21             	cmp    (%rcx),%rsp
 1004134:	77 05                	ja     100413b <runtime.FixAlloc_Init+0x13>
 1004136:	e8 35 d8 ff ff       	callq  1001970 <runtime.morestack40>
 100413b:	48 8b 54 24 08       	mov    0x8(%rsp),%rdx
{
	f->size = size;
 1004140:	48 8b 4c 24 10       	mov    0x10(%rsp),%rcx
 1004145:	48 89 0a             	mov    %rcx,(%rdx)
	f->alloc = alloc;
 1004148:	48 8b 4c 24 18       	mov    0x18(%rsp),%rcx
 100414d:	48 89 4a 08          	mov    %rcx,0x8(%rdx)
	f->first = first;
 1004151:	48 8b 4c 24 20       	mov    0x20(%rsp),%rcx
 1004156:	48 89 4a 10          	mov    %rcx,0x10(%rdx)
	f->arg = arg;
 100415a:	48 8b 4c 24 28       	mov    0x28(%rsp),%rcx
 100415f:	48 89 4a 18          	mov    %rcx,0x18(%rdx)
	f->list = nil;
 1004163:	48 c7 42 20 00 00 00 	movq   $0x0,0x20(%rdx)
 100416a:	00 
	f->chunk = nil;
 100416b:	48 c7 42 28 00 00 00 	movq   $0x0,0x28(%rdx)
 1004172:	00 
	f->nchunk = 0;
 1004173:	c7 42 30 00 00 00 00 	movl   $0x0,0x30(%rdx)
	f->inuse = 0;
 100417a:	48 c7 42 38 00 00 00 	movq   $0x0,0x38(%rdx)
 1004181:	00 
	f->sys = 0;
 1004182:	48 c7 42 40 00 00 00 	movq   $0x0,0x40(%rdx)
 1004189:	00 
 100418a:	c3                   	retq   

000000000100418b <runtime.FixAlloc_Alloc>:
}

void*
runtime·FixAlloc_Alloc(FixAlloc *f)
 100418b:	64 48 8b 0c 25 f0 ff 	mov    %fs:0xfffffffffffffff0,%rcx
 1004192:	ff ff 
 1004194:	48 3b 21             	cmp    (%rcx),%rsp
 1004197:	77 05                	ja     100419e <runtime.FixAlloc_Alloc+0x13>
 1004199:	e8 ae d7 ff ff       	callq  100194c <runtime.morestack8>
 100419e:	48 83 ec 28          	sub    $0x28,%rsp
 10041a2:	48 8b 54 24 30       	mov    0x30(%rsp),%rdx
{
	void *v;

	if(f->list) {
 10041a7:	48 8b 42 20          	mov    0x20(%rdx),%rax
 10041ab:	48 83 f8 00          	cmp    $0x0,%rax
 10041af:	74 1b                	je     10041cc <runtime.FixAlloc_Alloc+0x41>
		v = f->list;
 10041b1:	48 8b 42 20          	mov    0x20(%rdx),%rax
		f->list = *(void**)f->list;
 10041b5:	48 8b 4a 20          	mov    0x20(%rdx),%rcx
 10041b9:	48 8b 09             	mov    (%rcx),%rcx
 10041bc:	48 89 4a 20          	mov    %rcx,0x20(%rdx)
		f->inuse += f->size;
 10041c0:	48 8b 0a             	mov    (%rdx),%rcx
 10041c3:	48 01 4a 38          	add    %rcx,0x38(%rdx)
		return v;
 10041c7:	48 83 c4 28          	add    $0x28,%rsp
 10041cb:	c3                   	retq   
	}
	if(f->nchunk < f->size) {
 10041cc:	8b 42 30             	mov    0x30(%rdx),%eax
 10041cf:	48 8b 0a             	mov    (%rdx),%rcx
 10041d2:	48 39 c8             	cmp    %rcx,%rax
 10041d5:	73 46                	jae    100421d <runtime.FixAlloc_Alloc+0x92>
		f->sys += FixAllocChunk;
 10041d7:	48 81 42 40 00 00 02 	addq   $0x20000,0x40(%rdx)
 10041de:	00 
		f->chunk = f->alloc(FixAllocChunk);
 10041df:	48 c7 c1 00 00 02 00 	mov    $0x20000,%rcx
 10041e6:	48 89 0c 24          	mov    %rcx,(%rsp)
 10041ea:	48 8b 42 08          	mov    0x8(%rdx),%rax
 10041ee:	ff d0                	callq  *%rax
 10041f0:	48 8b 54 24 30       	mov    0x30(%rsp),%rdx
 10041f5:	48 89 42 28          	mov    %rax,0x28(%rdx)
		if(f->chunk == nil)
 10041f9:	48 8b 42 28          	mov    0x28(%rdx),%rax
 10041fd:	48 83 f8 00          	cmp    $0x0,%rax
 1004201:	75 13                	jne    1004216 <runtime.FixAlloc_Alloc+0x8b>
			runtime·throw("out of memory (FixAlloc)");
 1004203:	b8 70 30 02 01       	mov    $0x1023070,%eax
 1004208:	48 89 04 24          	mov    %rax,(%rsp)
 100420c:	e8 28 5b 00 00       	callq  1009d39 <runtime.throw>
 1004211:	48 8b 54 24 30       	mov    0x30(%rsp),%rdx
		f->nchunk = FixAllocChunk;
 1004216:	c7 42 30 00 00 02 00 	movl   $0x20000,0x30(%rdx)
	}
	v = f->chunk;
 100421d:	48 8b 5a 28          	mov    0x28(%rdx),%rbx
	if(f->first)
 1004221:	48 8b 42 10          	mov    0x10(%rdx),%rax
 1004225:	48 83 f8 00          	cmp    $0x0,%rax
 1004229:	74 22                	je     100424d <runtime.FixAlloc_Alloc+0xc2>
		f->first(f->arg, v);
 100422b:	48 8b 42 18          	mov    0x18(%rdx),%rax
 100422f:	48 89 04 24          	mov    %rax,(%rsp)
 1004233:	48 89 5c 24 20       	mov    %rbx,0x20(%rsp)
 1004238:	48 89 5c 24 08       	mov    %rbx,0x8(%rsp)
 100423d:	48 8b 42 10          	mov    0x10(%rdx),%rax
 1004241:	ff d0                	callq  *%rax
 1004243:	48 8b 5c 24 20       	mov    0x20(%rsp),%rbx
 1004248:	48 8b 54 24 30       	mov    0x30(%rsp),%rdx
	f->chunk += f->size;
 100424d:	48 8b 0a             	mov    (%rdx),%rcx
 1004250:	48 01 4a 28          	add    %rcx,0x28(%rdx)
	f->nchunk -= f->size;
 1004254:	48 8b 0a             	mov    (%rdx),%rcx
 1004257:	29 4a 30             	sub    %ecx,0x30(%rdx)
	f->inuse += f->size;
 100425a:	48 8b 0a             	mov    (%rdx),%rcx
 100425d:	48 01 4a 38          	add    %rcx,0x38(%rdx)
	return v;
 1004261:	48 89 d8             	mov    %rbx,%rax
 1004264:	48 83 c4 28          	add    $0x28,%rsp
 1004268:	c3                   	retq   

0000000001004269 <runtime.FixAlloc_Free>:
}

void
runtime·FixAlloc_Free(FixAlloc *f, void *p)
 1004269:	64 48 8b 0c 25 f0 ff 	mov    %fs:0xfffffffffffffff0,%rcx
 1004270:	ff ff 
 1004272:	48 3b 21             	cmp    (%rcx),%rsp
 1004275:	77 05                	ja     100427c <runtime.FixAlloc_Free+0x13>
 1004277:	e8 d9 d6 ff ff       	callq  1001955 <runtime.morestack16>
 100427c:	48 8b 5c 24 10       	mov    0x10(%rsp),%rbx
 1004281:	48 8b 54 24 08       	mov    0x8(%rsp),%rdx
{
	f->inuse -= f->size;
 1004286:	48 8b 0a             	mov    (%rdx),%rcx
 1004289:	48 29 4a 38          	sub    %rcx,0x38(%rdx)
	*(void**)p = f->list;
 100428d:	48 8b 4a 20          	mov    0x20(%rdx),%rcx
 1004291:	48 89 0b             	mov    %rcx,(%rbx)
 1004294:	48 89 5a 20          	mov    %rbx,0x20(%rdx)
 1004298:	c3                   	retq   

0000000001004299 <scanblock>:
// unscanned objects left.  Instead of using an explicit recursion, it keeps
// a work list in the Workbuf* structures and loops in the main function
// body.  Keeping an explicit work list is easier on the stack allocator and
// more efficient.
static void
scanblock(byte *b, int64 n)
 1004299:	64 48 8b 0c 25 f0 ff 	mov    %fs:0xfffffffffffffff0,%rcx
 10042a0:	ff ff 
 10042a2:	48 8d 44 24 b0       	lea    -0x50(%rsp),%rax
 10042a7:	48 3b 01             	cmp    (%rcx),%rax
 10042aa:	77 05                	ja     10042b1 <scanblock+0x18>
 10042ac:	e8 a4 d6 ff ff       	callq  1001955 <runtime.morestack16>
 10042b1:	48 81 ec d0 00 00 00 	sub    $0xd0,%rsp
 10042b8:	48 8b ac 24 d8 00 00 	mov    0xd8(%rsp),%rbp
 10042bf:	00 
 10042c0:	48 8b 8c 24 e0 00 00 	mov    0xe0(%rsp),%rcx
 10042c7:	00 
	MSpan *s;
	PageID k;
	void **bw, **w, **ew;
	Workbuf *wbuf;

	if((int64)(uintptr)n != n || n < 0) {
 10042c8:	48 39 c9             	cmp    %rcx,%rcx
 10042cb:	0f 85 37 04 00 00    	jne    1004708 <scanblock+0x46f>
 10042d1:	48 83 f9 00          	cmp    $0x0,%rcx
 10042d5:	0f 8c 2d 04 00 00    	jl     1004708 <scanblock+0x46f>
		runtime·printf("scanblock %p %D\n", b, n);
		runtime·throw("scanblock");
	}

	// Memory arena parameters.
	arena_start = runtime·mheap.arena_start;
 10042db:	4c 8b 04 25 e8 e8 03 	mov    0x303e8e8,%r8
 10042e2:	03 
 10042e3:	4c 89 84 24 c0 00 00 	mov    %r8,0xc0(%rsp)
 10042ea:	00 
	
	wbuf = nil;  // current work buffer
 10042eb:	48 31 f6             	xor    %rsi,%rsi
	ew = nil;  // end of work buffer
 10042ee:	4d 31 e4             	xor    %r12,%r12
	bw = nil;  // beginning of work buffer
 10042f1:	4d 31 d2             	xor    %r10,%r10
	w = nil;  // current pointer into work buffer
 10042f4:	48 31 ff             	xor    %rdi,%rdi

	// Align b to a word boundary.
	off = (uintptr)b & (PtrSize-1);
 10042f7:	48 89 ea             	mov    %rbp,%rdx
 10042fa:	48 83 e2 07          	and    $0x7,%rdx
	if(off != 0) {
 10042fe:	48 83 fa 00          	cmp    $0x0,%rdx
 1004302:	74 1a                	je     100431e <scanblock+0x85>
		b += PtrSize - off;
 1004304:	48 c7 c0 08 00 00 00 	mov    $0x8,%rax
 100430b:	48 29 d0             	sub    %rdx,%rax
 100430e:	48 01 c5             	add    %rax,%rbp
		n -= PtrSize - off;
 1004311:	48 c7 c0 08 00 00 00 	mov    $0x8,%rax
 1004318:	48 29 d0             	sub    %rdx,%rax
 100431b:	48 29 c1             	sub    %rax,%rcx
		// Each iteration scans the block b of length n, queueing pointers in
		// the work buffer.
		if(Debug > 1)
			runtime·printf("scanblock %p %D\n", b, n);

		vp = (void**)b;
 100431e:	48 89 ac 24 b0 00 00 	mov    %rbp,0xb0(%rsp)
 1004325:	00 
		n /= PtrSize;
 1004326:	48 89 c8             	mov    %rcx,%rax
 1004329:	48 99                	cqto   
 100432b:	48 c7 c1 08 00 00 00 	mov    $0x8,%rcx
 1004332:	48 f7 f9             	idiv   %rcx
 1004335:	48 89 84 24 e0 00 00 	mov    %rax,0xe0(%rsp)
 100433c:	00 
		for(i=0; i<n; i++) {
 100433d:	4d 31 ed             	xor    %r13,%r13
 1004340:	4c 3b ac 24 e0 00 00 	cmp    0xe0(%rsp),%r13
 1004347:	00 
 1004348:	0f 83 d6 00 00 00    	jae    1004424 <scanblock+0x18b>
			obj = (byte*)vp[i];
 100434e:	4c 89 ac 24 88 00 00 	mov    %r13,0x88(%rsp)
 1004355:	00 
 1004356:	48 8b 94 24 b0 00 00 	mov    0xb0(%rsp),%rdx
 100435d:	00 
 100435e:	4a 8b 0c ea          	mov    (%rdx,%r13,8),%rcx
			
			// Words outside the arena cannot be pointers.
			if((byte*)obj < arena_start || (byte*)obj >= runtime·mheap.arena_used)
 1004362:	4c 39 c1             	cmp    %r8,%rcx
 1004365:	0f 82 a8 00 00 00    	jb     1004413 <scanblock+0x17a>
 100436b:	48 3b 0c 25 f0 e8 03 	cmp    0x303e8f0,%rcx
 1004372:	03 
 1004373:	0f 83 9a 00 00 00    	jae    1004413 <scanblock+0x17a>
			
			// obj may be a pointer to a live object.
			// Try to find the beginning of the object.
			
			// Round down to word boundary.
			obj = (void*)((uintptr)obj & ~((uintptr)PtrSize-1));
 1004379:	48 89 c8             	mov    %rcx,%rax
 100437c:	48 83 e0 f8          	and    $0xfffffffffffffff8,%rax

			// Find bits for this word.
			off = (uintptr*)obj - (uintptr*)arena_start;
 1004380:	48 89 c5             	mov    %rax,%rbp
 1004383:	48 89 84 24 c8 00 00 	mov    %rax,0xc8(%rsp)
 100438a:	00 
 100438b:	4c 29 c0             	sub    %r8,%rax
 100438e:	48 c1 f8 03          	sar    $0x3,%rax
 1004392:	48 89 c2             	mov    %rax,%rdx
			bitp = (uintptr*)arena_start - off/wordsPerBitmapWord - 1;
 1004395:	48 c1 e8 04          	shr    $0x4,%rax
 1004399:	48 c1 e0 03          	shl    $0x3,%rax
 100439d:	4d 89 c1             	mov    %r8,%r9
 10043a0:	49 29 c1             	sub    %rax,%r9
 10043a3:	49 83 c1 f8          	add    $0xfffffffffffffff8,%r9
			shift = off % wordsPerBitmapWord;
 10043a7:	48 83 e2 0f          	and    $0xf,%rdx
			xbits = *bitp;
 10043ab:	49 8b 01             	mov    (%r9),%rax
			bits = xbits >> shift;
 10043ae:	48 63 ca             	movslq %edx,%rcx
 10043b1:	49 89 c3             	mov    %rax,%r11
 10043b4:	48 d3 e8             	shr    %cl,%rax
 10043b7:	48 89 c3             	mov    %rax,%rbx

			// Pointing at the beginning of a block?
			if((bits & (bitAllocated|bitBlockBoundary)) != 0)
 10043ba:	48 25 01 00 01 00    	and    $0x10001,%rax
 10043c0:	48 83 f8 00          	cmp    $0x0,%rax
 10043c4:	0f 84 f5 01 00 00    	je     10045bf <scanblock+0x326>

		found:
			// Now we have bits, bitp, and shift correct for
			// obj pointing at the base of the object.
			// If not allocated or already marked, done.
			if((bits & bitAllocated) == 0 || (bits & bitMarked) != 0)
 10043ca:	48 89 d8             	mov    %rbx,%rax
 10043cd:	48 83 e0 01          	and    $0x1,%rax
 10043d1:	48 83 f8 00          	cmp    $0x0,%rax
 10043d5:	74 3c                	je     1004413 <scanblock+0x17a>
 10043d7:	48 89 d8             	mov    %rbx,%rax
 10043da:	48 b9 00 00 00 00 01 	movabs $0x100000000,%rcx
 10043e1:	00 00 00 
 10043e4:	48 21 c8             	and    %rcx,%rax
 10043e7:	48 83 f8 00          	cmp    $0x0,%rax
 10043eb:	75 26                	jne    1004413 <scanblock+0x17a>
				continue;
			*bitp |= bitMarked<<shift;
 10043ed:	48 63 ca             	movslq %edx,%rcx
 10043f0:	48 b8 00 00 00 00 01 	movabs $0x100000000,%rax
 10043f7:	00 00 00 
 10043fa:	48 d3 e0             	shl    %cl,%rax
 10043fd:	49 09 01             	or     %rax,(%r9)

			// If object has no pointers, don't need to scan further.
			if((bits & bitNoPointers) != 0)
 1004400:	48 89 d8             	mov    %rbx,%rax
 1004403:	48 25 00 00 01 00    	and    $0x10000,%rax
 1004409:	48 83 f8 00          	cmp    $0x0,%rax
 100440d:	0f 84 60 01 00 00    	je     1004573 <scanblock+0x2da>
		if(Debug > 1)
			runtime·printf("scanblock %p %D\n", b, n);

		vp = (void**)b;
		n /= PtrSize;
		for(i=0; i<n; i++) {
 1004413:	49 ff c5             	inc    %r13
 1004416:	4c 3b ac 24 e0 00 00 	cmp    0xe0(%rsp),%r13
 100441d:	00 
 100441e:	0f 82 2a ff ff ff    	jb     100434e <scanblock+0xb5>
		
		// Done scanning [b, b+n).  Prepare for the next iteration of
		// the loop by setting b and n to the parameters for the next block.

		// Fetch b from the work buffers.
		if(w <= bw) {
 1004424:	4c 39 d7             	cmp    %r10,%rdi
 1004427:	77 3e                	ja     1004467 <scanblock+0x1ce>
			// Emptied our buffer: refill.
			wbuf = getfull(wbuf);
 1004429:	48 89 34 24          	mov    %rsi,(%rsp)
 100442d:	e8 c7 03 00 00       	callq  10047f9 <getfull>
 1004432:	4c 8b 84 24 c0 00 00 	mov    0xc0(%rsp),%r8
 1004439:	00 
 100443a:	48 89 c6             	mov    %rax,%rsi
			if(wbuf == nil)
 100443d:	48 83 f8 00          	cmp    $0x0,%rax
 1004441:	75 08                	jne    100444b <scanblock+0x1b2>
		// turns negative, which is undefined in C.		

		for(j=1; j<bitShift; j++) {
			if(((bits>>j)&boundary) != 0 || shift>=j && ((xbits>>(shift-j))&boundary) != 0) {
				n = j*PtrSize;
				goto scan;
 1004443:	48 81 c4 d0 00 00 00 	add    $0xd0,%rsp
 100444a:	c3                   	retq   
		if(w <= bw) {
			// Emptied our buffer: refill.
			wbuf = getfull(wbuf);
			if(wbuf == nil)
				break;
			bw = wbuf->w;
 100444b:	48 83 c0 10          	add    $0x10,%rax
 100444f:	49 89 c2             	mov    %rax,%r10
			ew = wbuf->w + nelem(wbuf->w);
 1004452:	49 89 f4             	mov    %rsi,%r12
 1004455:	49 81 c4 00 40 00 00 	add    $0x4000,%r12
			w = bw+wbuf->nw;
 100445c:	48 8b 4e 08          	mov    0x8(%rsi),%rcx
 1004460:	48 8d 04 c8          	lea    (%rax,%rcx,8),%rax
 1004464:	48 89 c7             	mov    %rax,%rdi
		}
		b = *--w;
 1004467:	48 83 c7 f8          	add    $0xfffffffffffffff8,%rdi
 100446b:	48 8b 07             	mov    (%rdi),%rax
	
		// Figure out n = size of b.  Start by loading bits for b.
		off = (uintptr*)b - (uintptr*)arena_start;
 100446e:	48 89 c5             	mov    %rax,%rbp
 1004471:	4c 29 c0             	sub    %r8,%rax
 1004474:	48 c1 f8 03          	sar    $0x3,%rax
 1004478:	48 89 c2             	mov    %rax,%rdx
		bitp = (uintptr*)arena_start - off/wordsPerBitmapWord - 1;
 100447b:	48 c1 e8 04          	shr    $0x4,%rax
 100447f:	48 c1 e0 03          	shl    $0x3,%rax
 1004483:	4c 89 c1             	mov    %r8,%rcx
 1004486:	48 29 c1             	sub    %rax,%rcx
 1004489:	48 83 c1 f8          	add    $0xfffffffffffffff8,%rcx
		shift = off % wordsPerBitmapWord;
 100448d:	48 89 d3             	mov    %rdx,%rbx
 1004490:	48 83 e3 0f          	and    $0xf,%rbx
		xbits = *bitp;
 1004494:	48 8b 01             	mov    (%rcx),%rax
		bits = xbits >> shift;
 1004497:	48 63 cb             	movslq %ebx,%rcx
 100449a:	49 89 c3             	mov    %rax,%r11
 100449d:	48 d3 e8             	shr    %cl,%rax
 10044a0:	49 89 c1             	mov    %rax,%r9
		// we'll be bleeding other bit types like bitMarked into our test.)
		// Instead of inserting the conditional shift+j < bitShift into the loop,
		// we can let j range from 1 to bitShift as long as we first
		// apply a mask to keep only the bits corresponding
		// to shift+j < bitShift aka j < bitShift-shift.
		bits &= (boundary<<(bitShift-shift)) - boundary;
 10044a3:	48 c7 c1 10 00 00 00 	mov    $0x10,%rcx
 10044aa:	48 29 d9             	sub    %rbx,%rcx
 10044ad:	48 63 c9             	movslq %ecx,%rcx
 10044b0:	48 c7 c0 01 00 01 00 	mov    $0x10001,%rax
 10044b7:	48 d3 e0             	shl    %cl,%rax
 10044ba:	48 05 ff ff fe ff    	add    $0xfffffffffffeffff,%rax
 10044c0:	49 21 c1             	and    %rax,%r9
		//	xbits>>(shift-j) & boundary
		// (assuming shift >= j).  There is no cleverness here
		// avoid the test, because when j gets too large the shift
		// turns negative, which is undefined in C.		

		for(j=1; j<bitShift; j++) {
 10044c3:	48 c7 c2 01 00 00 00 	mov    $0x1,%rdx
 10044ca:	48 83 fa 10          	cmp    $0x10,%rdx
 10044ce:	73 4d                	jae    100451d <scanblock+0x284>
			if(((bits>>j)&boundary) != 0 || shift>=j && ((xbits>>(shift-j))&boundary) != 0) {
 10044d0:	48 63 ca             	movslq %edx,%rcx
 10044d3:	4c 89 c8             	mov    %r9,%rax
 10044d6:	48 d3 e8             	shr    %cl,%rax
 10044d9:	48 25 01 00 01 00    	and    $0x10001,%rax
 10044df:	48 83 f8 00          	cmp    $0x0,%rax
 10044e3:	75 20                	jne    1004505 <scanblock+0x26c>
 10044e5:	48 39 d3             	cmp    %rdx,%rbx
 10044e8:	72 2a                	jb     1004514 <scanblock+0x27b>
 10044ea:	48 89 d9             	mov    %rbx,%rcx
 10044ed:	48 29 d1             	sub    %rdx,%rcx
 10044f0:	48 63 c9             	movslq %ecx,%rcx
 10044f3:	4c 89 d8             	mov    %r11,%rax
 10044f6:	48 d3 e8             	shr    %cl,%rax
 10044f9:	48 25 01 00 01 00    	and    $0x10001,%rax
 10044ff:	48 83 f8 00          	cmp    $0x0,%rax
 1004503:	74 0f                	je     1004514 <scanblock+0x27b>
				n = j*PtrSize;
 1004505:	48 89 d0             	mov    %rdx,%rax
 1004508:	48 c1 e0 03          	shl    $0x3,%rax
 100450c:	48 89 c1             	mov    %rax,%rcx
		// Each iteration scans the block b of length n, queueing pointers in
		// the work buffer.
		if(Debug > 1)
			runtime·printf("scanblock %p %D\n", b, n);

		vp = (void**)b;
 100450f:	e9 0a fe ff ff       	jmpq   100431e <scanblock+0x85>
		//	xbits>>(shift-j) & boundary
		// (assuming shift >= j).  There is no cleverness here
		// avoid the test, because when j gets too large the shift
		// turns negative, which is undefined in C.		

		for(j=1; j<bitShift; j++) {
 1004514:	48 ff c2             	inc    %rdx
 1004517:	48 83 fa 10          	cmp    $0x10,%rdx
 100451b:	72 b3                	jb     10044d0 <scanblock+0x237>
			}
		}
		
		// Fall back to asking span about size class.
		// (Manually inlined copy of MHeap_Lookup.)
		nlookup++;
 100451d:	48 ff 04 25 b8 4e 02 	incq   0x1024eb8
 1004524:	01 
		nsizelookup++;
 1004525:	48 ff 04 25 c0 4e 02 	incq   0x1024ec0
 100452c:	01 
		x = (uintptr)b>>PageShift;
 100452d:	48 89 e8             	mov    %rbp,%rax
 1004530:	48 c1 e8 0c          	shr    $0xc,%rax
 1004534:	48 89 c2             	mov    %rax,%rdx
		if(sizeof(void*) == 8)
			x -= (uintptr)arena_start>>PageShift;
 1004537:	4c 89 c0             	mov    %r8,%rax
 100453a:	48 c1 e8 0c          	shr    $0xc,%rax
